ARM GAS  C:\Temp\cca5Sk2b.s 			page 1


   1              		.cpu cortex-m4
   2              		.arch armv7e-m
   3              		.fpu fpv4-sp-d16
   4              		.eabi_attribute 27, 1
   5              		.eabi_attribute 28, 1
   6              		.eabi_attribute 20, 1
   7              		.eabi_attribute 21, 1
   8              		.eabi_attribute 23, 3
   9              		.eabi_attribute 24, 1
  10              		.eabi_attribute 25, 1
  11              		.eabi_attribute 26, 1
  12              		.eabi_attribute 30, 1
  13              		.eabi_attribute 34, 1
  14              		.eabi_attribute 18, 4
  15              		.file	"USB.c"
  16              		.text
  17              	.Ltext0:
  18              		.cfi_sections	.debug_frame
  19              		.file 1 "Core/Src/USB.c"
  20              		.section	.text.send_USB,"ax",%progbits
  21              		.align	1
  22              		.global	send_USB
  23              		.syntax unified
  24              		.thumb
  25              		.thumb_func
  27              	send_USB:
  28              	.LVL0:
  29              	.LFB235:
   1:Core/Src/USB.c **** //********************************************************************
   2:Core/Src/USB.c **** //*                      Mech Educational Board                      *
   3:Core/Src/USB.c **** //*                         Neo Pixels Library                       *
   4:Core/Src/USB.c **** //*==================================================================*
   5:Core/Src/USB.c **** //* @author:    Jesse Jabez Arendse                                  *
   6:Core/Src/USB.c **** //* @date:      23-10-2023                                           *
   7:Core/Src/USB.c **** //*==================================================================*
   8:Core/Src/USB.c **** 
   9:Core/Src/USB.c **** #include "main.h"
  10:Core/Src/USB.c **** 
  11:Core/Src/USB.c **** extern UART_HandleTypeDef huart4;
  12:Core/Src/USB.c **** 
  13:Core/Src/USB.c **** uint8_t rxBuffer[13]; // Receive buffer
  14:Core/Src/USB.c **** 
  15:Core/Src/USB.c **** 
  16:Core/Src/USB.c **** void send_USB(char _out[]) {
  30              		.loc 1 16 28 view -0
  31              		.cfi_startproc
  32              		@ args = 0, pretend = 0, frame = 8
  33              		@ frame_needed = 0, uses_anonymous_args = 0
  34              		.loc 1 16 28 is_stmt 0 view .LVU1
  35 0000 30B5     		push	{r4, r5, lr}
  36              		.cfi_def_cfa_offset 12
  37              		.cfi_offset 4, -12
  38              		.cfi_offset 5, -8
  39              		.cfi_offset 14, -4
  40 0002 83B0     		sub	sp, sp, #12
  41              		.cfi_def_cfa_offset 24
  42 0004 0446     		mov	r4, r0
ARM GAS  C:\Temp\cca5Sk2b.s 			page 2


  17:Core/Src/USB.c **** 	HAL_UART_Transmit(&huart4, (uint8_t*) _out, strlen(_out), 60);
  43              		.loc 1 17 2 is_stmt 1 view .LVU2
  44              		.loc 1 17 46 is_stmt 0 view .LVU3
  45 0006 FFF7FEFF 		bl	strlen
  46              	.LVL1:
  47              		.loc 1 17 2 view .LVU4
  48 000a 094D     		ldr	r5, .L3
  49 000c 3C23     		movs	r3, #60
  50 000e 82B2     		uxth	r2, r0
  51 0010 2146     		mov	r1, r4
  52 0012 2846     		mov	r0, r5
  53 0014 FFF7FEFF 		bl	HAL_UART_Transmit
  54              	.LVL2:
  18:Core/Src/USB.c **** 	char newline[2] = "\r\n";
  55              		.loc 1 18 2 is_stmt 1 view .LVU5
  56              		.loc 1 18 7 is_stmt 0 view .LVU6
  57 0018 40F60D23 		movw	r3, #2573
  58 001c ADF80430 		strh	r3, [sp, #4]	@ movhi
  19:Core/Src/USB.c **** 	HAL_UART_Transmit(&huart4, (uint8_t*) newline, 2, 10);
  59              		.loc 1 19 2 is_stmt 1 view .LVU7
  60 0020 0A23     		movs	r3, #10
  61 0022 0222     		movs	r2, #2
  62 0024 01A9     		add	r1, sp, #4
  63 0026 2846     		mov	r0, r5
  64 0028 FFF7FEFF 		bl	HAL_UART_Transmit
  65              	.LVL3:
  20:Core/Src/USB.c **** }
  66              		.loc 1 20 1 is_stmt 0 view .LVU8
  67 002c 03B0     		add	sp, sp, #12
  68              		.cfi_def_cfa_offset 12
  69              		@ sp needed
  70 002e 30BD     		pop	{r4, r5, pc}
  71              	.LVL4:
  72              	.L4:
  73              		.loc 1 20 1 view .LVU9
  74              		.align	2
  75              	.L3:
  76 0030 00000000 		.word	huart4
  77              		.cfi_endproc
  78              	.LFE235:
  80              		.section	.text.HAL_UART_RxCpltCallback,"ax",%progbits
  81              		.align	1
  82              		.global	HAL_UART_RxCpltCallback
  83              		.syntax unified
  84              		.thumb
  85              		.thumb_func
  87              	HAL_UART_RxCpltCallback:
  88              	.LVL5:
  89              	.LFB236:
  21:Core/Src/USB.c **** 
  22:Core/Src/USB.c **** 
  23:Core/Src/USB.c **** void HAL_UART_RxCpltCallback(UART_HandleTypeDef *huart) {
  90              		.loc 1 23 57 is_stmt 1 view -0
  91              		.cfi_startproc
  92              		@ args = 0, pretend = 0, frame = 0
  93              		@ frame_needed = 0, uses_anonymous_args = 0
  94              		.loc 1 23 57 is_stmt 0 view .LVU11
ARM GAS  C:\Temp\cca5Sk2b.s 			page 3


  95 0000 08B5     		push	{r3, lr}
  96              		.cfi_def_cfa_offset 8
  97              		.cfi_offset 3, -8
  98              		.cfi_offset 14, -4
  24:Core/Src/USB.c ****     if (huart == UART4) {
  99              		.loc 1 24 5 is_stmt 1 view .LVU12
 100              		.loc 1 24 8 is_stmt 0 view .LVU13
 101 0002 044B     		ldr	r3, .L9
 102 0004 9842     		cmp	r0, r3
 103 0006 00D0     		beq	.L8
 104              	.LVL6:
 105              	.L5:
  25:Core/Src/USB.c ****         HAL_UART_Receive_IT(huart, rxBuffer, 13);
  26:Core/Src/USB.c ****     }
  27:Core/Src/USB.c **** }...
 106              		.loc 1 27 1 view .LVU14
 107 0008 08BD     		pop	{r3, pc}
 108              	.LVL7:
 109              	.L8:
  25:Core/Src/USB.c ****         HAL_UART_Receive_IT(huart, rxBuffer, 13);
 110              		.loc 1 25 9 is_stmt 1 view .LVU15
 111 000a 0D22     		movs	r2, #13
 112 000c 0249     		ldr	r1, .L9+4
 113 000e FFF7FEFF 		bl	HAL_UART_Receive_IT
 114              	.LVL8:
 115              		.loc 1 27 1 is_stmt 0 view .LVU16
 116 0012 F9E7     		b	.L5
 117              	.L10:
 118              		.align	2
 119              	.L9:
 120 0014 004C0040 		.word	1073761280
 121 0018 00000000 		.word	rxBuffer
 122              		.cfi_endproc
 123              	.LFE236:
 125              		.global	rxBuffer
 126              		.section	.bss.rxBuffer,"aw",%nobits
 127              		.align	2
 130              	rxBuffer:
 131 0000 00000000 		.space	13
 131      00000000 
 131      00000000 
 131      00
 132              		.text
 133              	.Letext0:
 134              		.file 2 "c:\\users\\jesse arendse\\appdata\\roaming\\code\\user\\globalstorage\\bmd.stm32-for-vsco
 135              		.file 3 "c:\\users\\jesse arendse\\appdata\\roaming\\code\\user\\globalstorage\\bmd.stm32-for-vsco
 136              		.file 4 "Drivers/CMSIS/Device/ST/STM32F4xx/Include/stm32f407xx.h"
 137              		.file 5 "Drivers/STM32F4xx_HAL_Driver/Inc/stm32f4xx_hal_def.h"
 138              		.file 6 "Drivers/STM32F4xx_HAL_Driver/Inc/stm32f4xx_hal_dma.h"
 139              		.file 7 "Drivers/STM32F4xx_HAL_Driver/Inc/stm32f4xx_hal_uart.h"
 140              		.file 8 "<built-in>"
ARM GAS  C:\Temp\cca5Sk2b.s 			page 4

