ARM GAS  C:\Temp\ccCqsu9M.s 			page 1


   1              		.cpu cortex-m4
   2              		.arch armv7e-m
   3              		.fpu fpv4-sp-d16
   4              		.eabi_attribute 27, 1
   5              		.eabi_attribute 28, 1
   6              		.eabi_attribute 20, 1
   7              		.eabi_attribute 21, 1
   8              		.eabi_attribute 23, 3
   9              		.eabi_attribute 24, 1
  10              		.eabi_attribute 25, 1
  11              		.eabi_attribute 26, 1
  12              		.eabi_attribute 30, 1
  13              		.eabi_attribute 34, 1
  14              		.eabi_attribute 18, 4
  15              		.file	"7SegDisplay.c"
  16              		.text
  17              	.Ltext0:
  18              		.cfi_sections	.debug_frame
  19              		.file 1 "Core/Src/7SegDisplay.c"
  20              		.section	.text.init_7SegDisplay,"ax",%progbits
  21              		.align	1
  22              		.global	init_7SegDisplay
  23              		.syntax unified
  24              		.thumb
  25              		.thumb_func
  27              	init_7SegDisplay:
  28              	.LFB239:
   1:Core/Src/7SegDisplay.c **** //********************************************************************
   2:Core/Src/7SegDisplay.c **** //*                      Mech Educational Board                      *
   3:Core/Src/7SegDisplay.c **** //*                     7 Segment Display Library                    *
   4:Core/Src/7SegDisplay.c **** //*==================================================================*
   5:Core/Src/7SegDisplay.c **** //* @author:    Jesse Jabez Arendse                                  *
   6:Core/Src/7SegDisplay.c **** //* @date:      23-10-2023                                           *
   7:Core/Src/7SegDisplay.c **** //*==================================================================*
   8:Core/Src/7SegDisplay.c **** 
   9:Core/Src/7SegDisplay.c **** 
  10:Core/Src/7SegDisplay.c **** #include <stdio.h>
  11:Core/Src/7SegDisplay.c **** #include "main.h"
  12:Core/Src/7SegDisplay.c **** 
  13:Core/Src/7SegDisplay.c **** extern TIM_HandleTypeDef htim7;
  14:Core/Src/7SegDisplay.c **** 
  15:Core/Src/7SegDisplay.c **** uint8_t counter = 0;
  16:Core/Src/7SegDisplay.c **** char displayStr[16];
  17:Core/Src/7SegDisplay.c **** 
  18:Core/Src/7SegDisplay.c **** uint8_t floated = 0;
  19:Core/Src/7SegDisplay.c **** void refreshDisplay(void) {
  20:Core/Src/7SegDisplay.c ****     display_char(displayStr[counter],counter-floated);
  21:Core/Src/7SegDisplay.c ****     counter++;
  22:Core/Src/7SegDisplay.c ****     if (displayStr[counter] == '.'){
  23:Core/Src/7SegDisplay.c ****       HAL_GPIO_WritePin(GPIOG, SEG_DP_Pin,1);
  24:Core/Src/7SegDisplay.c ****       floated = 1;
  25:Core/Src/7SegDisplay.c ****     }
  26:Core/Src/7SegDisplay.c **** 
  27:Core/Src/7SegDisplay.c ****     if (counter == 3+floated) {
  28:Core/Src/7SegDisplay.c ****       counter = 0;
  29:Core/Src/7SegDisplay.c ****       floated = 0;
  30:Core/Src/7SegDisplay.c ****     }
ARM GAS  C:\Temp\ccCqsu9M.s 			page 2


  31:Core/Src/7SegDisplay.c **** }
  32:Core/Src/7SegDisplay.c **** 
  33:Core/Src/7SegDisplay.c **** void init_7SegDisplay(void){
  29              		.loc 1 33 28 view -0
  30              		.cfi_startproc
  31              		@ args = 0, pretend = 0, frame = 0
  32              		@ frame_needed = 0, uses_anonymous_args = 0
  33 0000 10B5     		push	{r4, lr}
  34              		.cfi_def_cfa_offset 8
  35              		.cfi_offset 4, -8
  36              		.cfi_offset 14, -4
  34:Core/Src/7SegDisplay.c ****   HAL_TIM_RegisterCallback(&htim7, HAL_TIM_PERIOD_ELAPSED_CB_ID, refreshDisplay);
  37              		.loc 1 34 3 view .LVU1
  38 0002 074C     		ldr	r4, .L3
  39 0004 074A     		ldr	r2, .L3+4
  40 0006 0E21     		movs	r1, #14
  41 0008 2046     		mov	r0, r4
  42 000a FFF7FEFF 		bl	HAL_TIM_RegisterCallback
  43              	.LVL0:
  35:Core/Src/7SegDisplay.c ****   HAL_TIM_Base_Start_IT(&htim7);
  44              		.loc 1 35 3 view .LVU2
  45 000e 2046     		mov	r0, r4
  46 0010 FFF7FEFF 		bl	HAL_TIM_Base_Start_IT
  47              	.LVL1:
  36:Core/Src/7SegDisplay.c **** 
  37:Core/Src/7SegDisplay.c ****   displayStr[0] = 'H';
  48              		.loc 1 37 3 view .LVU3
  49              		.loc 1 37 17 is_stmt 0 view .LVU4
  50 0014 044B     		ldr	r3, .L3+8
  51 0016 4822     		movs	r2, #72
  52 0018 1A70     		strb	r2, [r3]
  38:Core/Src/7SegDisplay.c ****   displayStr[1] = 'I';
  53              		.loc 1 38 3 is_stmt 1 view .LVU5
  54              		.loc 1 38 17 is_stmt 0 view .LVU6
  55 001a 4922     		movs	r2, #73
  56 001c 5A70     		strb	r2, [r3, #1]
  39:Core/Src/7SegDisplay.c **** }
  57              		.loc 1 39 1 view .LVU7
  58 001e 10BD     		pop	{r4, pc}
  59              	.L4:
  60              		.align	2
  61              	.L3:
  62 0020 00000000 		.word	htim7
  63 0024 00000000 		.word	refreshDisplay
  64 0028 00000000 		.word	displayStr
  65              		.cfi_endproc
  66              	.LFE239:
  68              		.section	.text.setString,"ax",%progbits
  69              		.align	1
  70              		.global	setString
  71              		.syntax unified
  72              		.thumb
  73              		.thumb_func
  75              	setString:
  76              	.LVL2:
  77              	.LFB240:
  40:Core/Src/7SegDisplay.c **** 
ARM GAS  C:\Temp\ccCqsu9M.s 			page 3


  41:Core/Src/7SegDisplay.c **** void setString(char str0,char str1,char str2){
  78              		.loc 1 41 46 is_stmt 1 view -0
  79              		.cfi_startproc
  80              		@ args = 0, pretend = 0, frame = 0
  81              		@ frame_needed = 0, uses_anonymous_args = 0
  82              		@ link register save eliminated.
  42:Core/Src/7SegDisplay.c ****   displayStr[0] = str0;
  83              		.loc 1 42 3 view .LVU9
  84              		.loc 1 42 17 is_stmt 0 view .LVU10
  85 0000 024B     		ldr	r3, .L6
  86 0002 1870     		strb	r0, [r3]
  43:Core/Src/7SegDisplay.c ****   displayStr[1] = str1;
  87              		.loc 1 43 3 is_stmt 1 view .LVU11
  88              		.loc 1 43 17 is_stmt 0 view .LVU12
  89 0004 5970     		strb	r1, [r3, #1]
  44:Core/Src/7SegDisplay.c ****   displayStr[2] = str2;
  90              		.loc 1 44 3 is_stmt 1 view .LVU13
  91              		.loc 1 44 17 is_stmt 0 view .LVU14
  92 0006 9A70     		strb	r2, [r3, #2]
  45:Core/Src/7SegDisplay.c **** }
  93              		.loc 1 45 1 view .LVU15
  94 0008 7047     		bx	lr
  95              	.L7:
  96 000a 00BF     		.align	2
  97              	.L6:
  98 000c 00000000 		.word	displayStr
  99              		.cfi_endproc
 100              	.LFE240:
 102              		.section	.rodata.setNumber.str1.4,"aMS",%progbits,1
 103              		.align	2
 104              	.LC0:
 105 0000 25336400 		.ascii	"%3d\000"
 106              		.section	.text.setNumber,"ax",%progbits
 107              		.align	1
 108              		.global	setNumber
 109              		.syntax unified
 110              		.thumb
 111              		.thumb_func
 113              	setNumber:
 114              	.LVL3:
 115              	.LFB241:
  46:Core/Src/7SegDisplay.c **** 
  47:Core/Src/7SegDisplay.c **** void setNumber(int number){
 116              		.loc 1 47 27 is_stmt 1 view -0
 117              		.cfi_startproc
 118              		@ args = 0, pretend = 0, frame = 0
 119              		@ frame_needed = 0, uses_anonymous_args = 0
 120              		.loc 1 47 27 is_stmt 0 view .LVU17
 121 0000 08B5     		push	{r3, lr}
 122              		.cfi_def_cfa_offset 8
 123              		.cfi_offset 3, -8
 124              		.cfi_offset 14, -4
 125 0002 0246     		mov	r2, r0
  48:Core/Src/7SegDisplay.c ****   sprintf(displayStr,"%3d",number);
 126              		.loc 1 48 3 is_stmt 1 view .LVU18
 127 0004 0249     		ldr	r1, .L10
 128 0006 0348     		ldr	r0, .L10+4
ARM GAS  C:\Temp\ccCqsu9M.s 			page 4


 129              	.LVL4:
 130              		.loc 1 48 3 is_stmt 0 view .LVU19
 131 0008 FFF7FEFF 		bl	sprintf
 132              	.LVL5:
  49:Core/Src/7SegDisplay.c **** }
 133              		.loc 1 49 1 view .LVU20
 134 000c 08BD     		pop	{r3, pc}
 135              	.L11:
 136 000e 00BF     		.align	2
 137              	.L10:
 138 0010 00000000 		.word	.LC0
 139 0014 00000000 		.word	displayStr
 140              		.cfi_endproc
 141              	.LFE241:
 143              		.section	.rodata.setFloatNumber.str1.4,"aMS",%progbits,1
 144              		.align	2
 145              	.LC1:
 146 0000 25642E25 		.ascii	"%d.%d\000"
 146      6400
 147              		.section	.text.setFloatNumber,"ax",%progbits
 148              		.align	1
 149              		.global	setFloatNumber
 150              		.syntax unified
 151              		.thumb
 152              		.thumb_func
 154              	setFloatNumber:
 155              	.LVL6:
 156              	.LFB242:
  50:Core/Src/7SegDisplay.c **** 
  51:Core/Src/7SegDisplay.c **** void setFloatNumber(float value) {
 157              		.loc 1 51 34 is_stmt 1 view -0
 158              		.cfi_startproc
 159              		@ args = 0, pretend = 0, frame = 0
 160              		@ frame_needed = 0, uses_anonymous_args = 0
 161              		.loc 1 51 34 is_stmt 0 view .LVU22
 162 0000 08B5     		push	{r3, lr}
 163              		.cfi_def_cfa_offset 8
 164              		.cfi_offset 3, -8
 165              		.cfi_offset 14, -4
  52:Core/Src/7SegDisplay.c ****     int intPart = (int)value;  // Extract the integer part
 166              		.loc 1 52 5 is_stmt 1 view .LVU23
 167              		.loc 1 52 9 is_stmt 0 view .LVU24
 168 0002 FDEEC07A 		vcvt.s32.f32	s15, s0
 169              	.LVL7:
  53:Core/Src/7SegDisplay.c ****     int decimalPart = (int)((value - intPart) * 100);  // Extract the first decimal place
 170              		.loc 1 53 5 is_stmt 1 view .LVU25
 171              		.loc 1 53 36 is_stmt 0 view .LVU26
 172 0006 B8EEE77A 		vcvt.f32.s32	s14, s15
 173 000a 30EE470A 		vsub.f32	s0, s0, s14
 174              	.LVL8:
 175              		.loc 1 53 47 view .LVU27
 176 000e 9FED097A 		vldr.32	s14, .L16
 177 0012 20EE070A 		vmul.f32	s0, s0, s14
 178              		.loc 1 53 9 view .LVU28
 179 0016 BDEEC07A 		vcvt.s32.f32	s14, s0
 180 001a 17EE103A 		vmov	r3, s14	@ int
 181              	.LVL9:
ARM GAS  C:\Temp\ccCqsu9M.s 			page 5


  54:Core/Src/7SegDisplay.c **** 
  55:Core/Src/7SegDisplay.c ****     if (decimalPart < 0){
 182              		.loc 1 55 5 is_stmt 1 view .LVU29
 183              		.loc 1 55 8 is_stmt 0 view .LVU30
 184 001e 002B     		cmp	r3, #0
 185 0020 06DB     		blt	.L15
 186              	.L13:
  56:Core/Src/7SegDisplay.c ****       decimalPart = -1*decimalPart;
  57:Core/Src/7SegDisplay.c ****     }
  58:Core/Src/7SegDisplay.c ****     
  59:Core/Src/7SegDisplay.c **** 
  60:Core/Src/7SegDisplay.c ****     // Format the string with one decimal place
  61:Core/Src/7SegDisplay.c ****     sprintf(displayStr, "%d.%d", intPart, decimalPart);
 187              		.loc 1 61 5 is_stmt 1 view .LVU31
 188 0022 17EE902A 		vmov	r2, s15	@ int
 189 0026 0449     		ldr	r1, .L16+4
 190 0028 0448     		ldr	r0, .L16+8
 191 002a FFF7FEFF 		bl	sprintf
 192              	.LVL10:
  62:Core/Src/7SegDisplay.c **** }
 193              		.loc 1 62 1 is_stmt 0 view .LVU32
 194 002e 08BD     		pop	{r3, pc}
 195              	.LVL11:
 196              	.L15:
  56:Core/Src/7SegDisplay.c ****       decimalPart = -1*decimalPart;
 197              		.loc 1 56 7 is_stmt 1 view .LVU33
  56:Core/Src/7SegDisplay.c ****       decimalPart = -1*decimalPart;
 198              		.loc 1 56 19 is_stmt 0 view .LVU34
 199 0030 5B42     		rsbs	r3, r3, #0
 200              	.LVL12:
  56:Core/Src/7SegDisplay.c ****       decimalPart = -1*decimalPart;
 201              		.loc 1 56 19 view .LVU35
 202 0032 F6E7     		b	.L13
 203              	.L17:
 204              		.align	2
 205              	.L16:
 206 0034 0000C842 		.word	1120403456
 207 0038 00000000 		.word	.LC1
 208 003c 00000000 		.word	displayStr
 209              		.cfi_endproc
 210              	.LFE242:
 212              		.section	.text.display_char,"ax",%progbits
 213              		.align	1
 214              		.global	display_char
 215              		.syntax unified
 216              		.thumb
 217              		.thumb_func
 219              	display_char:
 220              	.LVL13:
 221              	.LFB243:
  63:Core/Src/7SegDisplay.c **** 
  64:Core/Src/7SegDisplay.c **** void display_char(char character , uint8_t gridNumber){
 222              		.loc 1 64 55 is_stmt 1 view -0
 223              		.cfi_startproc
 224              		@ args = 0, pretend = 0, frame = 0
 225              		@ frame_needed = 0, uses_anonymous_args = 0
 226              		.loc 1 64 55 is_stmt 0 view .LVU37
ARM GAS  C:\Temp\ccCqsu9M.s 			page 6


 227 0000 70B5     		push	{r4, r5, r6, lr}
 228              		.cfi_def_cfa_offset 16
 229              		.cfi_offset 4, -16
 230              		.cfi_offset 5, -12
 231              		.cfi_offset 6, -8
 232              		.cfi_offset 14, -4
 233 0002 0446     		mov	r4, r0
  65:Core/Src/7SegDisplay.c ****   GPIOG->ODR = 0;
 234              		.loc 1 65 3 is_stmt 1 view .LVU38
 235              		.loc 1 65 14 is_stmt 0 view .LVU39
 236 0004 BF4B     		ldr	r3, .L52
 237 0006 0022     		movs	r2, #0
 238 0008 5A61     		str	r2, [r3, #20]
  66:Core/Src/7SegDisplay.c ****   
  67:Core/Src/7SegDisplay.c **** 
  68:Core/Src/7SegDisplay.c ****   if (gridNumber == 0){
 239              		.loc 1 68 3 is_stmt 1 view .LVU40
 240              		.loc 1 68 6 is_stmt 0 view .LVU41
 241 000a 0D46     		mov	r5, r1
 242 000c 0029     		cmp	r1, #0
 243 000e 50D0     		beq	.L49
 244              	.LVL14:
 245              	.L19:
  69:Core/Src/7SegDisplay.c ****     HAL_GPIO_WritePin(GPIOG,SEG_G0_Pin,1);
  70:Core/Src/7SegDisplay.c ****     HAL_GPIO_WritePin(GPIOG,SEG_G1_Pin,0);
  71:Core/Src/7SegDisplay.c ****     HAL_GPIO_WritePin(GPIOG,SEG_G2_Pin,0);
  72:Core/Src/7SegDisplay.c **** 
  73:Core/Src/7SegDisplay.c ****   }
  74:Core/Src/7SegDisplay.c ****   if (gridNumber == 1){
 246              		.loc 1 74 3 is_stmt 1 view .LVU42
 247              		.loc 1 74 6 is_stmt 0 view .LVU43
 248 0010 012D     		cmp	r5, #1
 249 0012 5FD0     		beq	.L50
 250              	.L20:
  75:Core/Src/7SegDisplay.c ****     HAL_GPIO_WritePin(GPIOG,SEG_G0_Pin,0);
  76:Core/Src/7SegDisplay.c ****     HAL_GPIO_WritePin(GPIOG,SEG_G1_Pin,1);
  77:Core/Src/7SegDisplay.c ****     HAL_GPIO_WritePin(GPIOG,SEG_G2_Pin,0);
  78:Core/Src/7SegDisplay.c ****   }
  79:Core/Src/7SegDisplay.c ****   if (gridNumber == 2){
 251              		.loc 1 79 3 is_stmt 1 view .LVU44
 252              		.loc 1 79 6 is_stmt 0 view .LVU45
 253 0014 022D     		cmp	r5, #2
 254 0016 6ED0     		beq	.L51
 255              	.L21:
  80:Core/Src/7SegDisplay.c ****     HAL_GPIO_WritePin(GPIOG,SEG_G0_Pin,0);
  81:Core/Src/7SegDisplay.c ****     HAL_GPIO_WritePin(GPIOG,SEG_G1_Pin,0);
  82:Core/Src/7SegDisplay.c ****     HAL_GPIO_WritePin(GPIOG,SEG_G2_Pin,1);
  83:Core/Src/7SegDisplay.c ****   }
  84:Core/Src/7SegDisplay.c **** 
  85:Core/Src/7SegDisplay.c ****   switch (character) {
 256              		.loc 1 85 3 is_stmt 1 view .LVU46
 257 0018 A4F12D00 		sub	r0, r4, #45
 258 001c 4528     		cmp	r0, #69
 259 001e 00F2A380 		bhi	.L18
 260 0022 DFE810F0 		tbh	[pc, r0, lsl #1]
 261              	.L24:
 262 0026 7900     		.2byte	(.L46-.L24)/2
ARM GAS  C:\Temp\ccCqsu9M.s 			page 7


 263 0028 A100     		.2byte	(.L18-.L24)/2
 264 002a A100     		.2byte	(.L18-.L24)/2
 265 002c A200     		.2byte	(.L45-.L24)/2
 266 002e CB00     		.2byte	(.L44-.L24)/2
 267 0030 F400     		.2byte	(.L43-.L24)/2
 268 0032 1D01     		.2byte	(.L42-.L24)/2
 269 0034 4601     		.2byte	(.L41-.L24)/2
 270 0036 7101     		.2byte	(.L40-.L24)/2
 271 0038 9A01     		.2byte	(.L39-.L24)/2
 272 003a C301     		.2byte	(.L38-.L24)/2
 273 003c EC01     		.2byte	(.L37-.L24)/2
 274 003e 1502     		.2byte	(.L36-.L24)/2
 275 0040 A100     		.2byte	(.L18-.L24)/2
 276 0042 A100     		.2byte	(.L18-.L24)/2
 277 0044 A100     		.2byte	(.L18-.L24)/2
 278 0046 A100     		.2byte	(.L18-.L24)/2
 279 0048 A100     		.2byte	(.L18-.L24)/2
 280 004a A100     		.2byte	(.L18-.L24)/2
 281 004c A100     		.2byte	(.L18-.L24)/2
 282 004e 3E02     		.2byte	(.L35-.L24)/2
 283 0050 6702     		.2byte	(.L34-.L24)/2
 284 0052 9002     		.2byte	(.L33-.L24)/2
 285 0054 B902     		.2byte	(.L32-.L24)/2
 286 0056 E202     		.2byte	(.L31-.L24)/2
 287 0058 0B03     		.2byte	(.L30-.L24)/2
 288 005a 3703     		.2byte	(.L29-.L24)/2
 289 005c 6003     		.2byte	(.L28-.L24)/2
 290 005e 8903     		.2byte	(.L27-.L24)/2
 291 0060 A100     		.2byte	(.L18-.L24)/2
 292 0062 A100     		.2byte	(.L18-.L24)/2
 293 0064 A100     		.2byte	(.L18-.L24)/2
 294 0066 A100     		.2byte	(.L18-.L24)/2
 295 0068 A100     		.2byte	(.L18-.L24)/2
 296 006a A100     		.2byte	(.L18-.L24)/2
 297 006c A100     		.2byte	(.L18-.L24)/2
 298 006e A100     		.2byte	(.L18-.L24)/2
 299 0070 A100     		.2byte	(.L18-.L24)/2
 300 0072 0404     		.2byte	(.L26-.L24)/2
 301 0074 A100     		.2byte	(.L18-.L24)/2
 302 0076 DB03     		.2byte	(.L25-.L24)/2
 303 0078 A100     		.2byte	(.L18-.L24)/2
 304 007a A100     		.2byte	(.L18-.L24)/2
 305 007c A100     		.2byte	(.L18-.L24)/2
 306 007e A100     		.2byte	(.L18-.L24)/2
 307 0080 A100     		.2byte	(.L18-.L24)/2
 308 0082 A100     		.2byte	(.L18-.L24)/2
 309 0084 A100     		.2byte	(.L18-.L24)/2
 310 0086 A100     		.2byte	(.L18-.L24)/2
 311 0088 A100     		.2byte	(.L18-.L24)/2
 312 008a A100     		.2byte	(.L18-.L24)/2
 313 008c A100     		.2byte	(.L18-.L24)/2
 314 008e A100     		.2byte	(.L18-.L24)/2
 315 0090 A100     		.2byte	(.L18-.L24)/2
 316 0092 A100     		.2byte	(.L18-.L24)/2
 317 0094 A100     		.2byte	(.L18-.L24)/2
 318 0096 A100     		.2byte	(.L18-.L24)/2
 319 0098 A100     		.2byte	(.L18-.L24)/2
ARM GAS  C:\Temp\ccCqsu9M.s 			page 8


 320 009a A100     		.2byte	(.L18-.L24)/2
 321 009c A100     		.2byte	(.L18-.L24)/2
 322 009e A100     		.2byte	(.L18-.L24)/2
 323 00a0 A100     		.2byte	(.L18-.L24)/2
 324 00a2 A100     		.2byte	(.L18-.L24)/2
 325 00a4 A100     		.2byte	(.L18-.L24)/2
 326 00a6 A100     		.2byte	(.L18-.L24)/2
 327 00a8 A100     		.2byte	(.L18-.L24)/2
 328 00aa A100     		.2byte	(.L18-.L24)/2
 329 00ac A100     		.2byte	(.L18-.L24)/2
 330 00ae A100     		.2byte	(.L18-.L24)/2
 331 00b0 B203     		.2byte	(.L23-.L24)/2
 332              	.LVL15:
 333              		.p2align 1
 334              	.L49:
  69:Core/Src/7SegDisplay.c ****     HAL_GPIO_WritePin(GPIOG,SEG_G1_Pin,0);
 335              		.loc 1 69 5 view .LVU47
 336 00b2 1E46     		mov	r6, r3
 337 00b4 0122     		movs	r2, #1
 338 00b6 0421     		movs	r1, #4
 339              	.LVL16:
  69:Core/Src/7SegDisplay.c ****     HAL_GPIO_WritePin(GPIOG,SEG_G1_Pin,0);
 340              		.loc 1 69 5 is_stmt 0 view .LVU48
 341 00b8 1846     		mov	r0, r3
 342              	.LVL17:
  69:Core/Src/7SegDisplay.c ****     HAL_GPIO_WritePin(GPIOG,SEG_G1_Pin,0);
 343              		.loc 1 69 5 view .LVU49
 344 00ba FFF7FEFF 		bl	HAL_GPIO_WritePin
 345              	.LVL18:
  70:Core/Src/7SegDisplay.c ****     HAL_GPIO_WritePin(GPIOG,SEG_G2_Pin,0);
 346              		.loc 1 70 5 is_stmt 1 view .LVU50
 347 00be 0022     		movs	r2, #0
 348 00c0 0821     		movs	r1, #8
 349 00c2 3046     		mov	r0, r6
 350 00c4 FFF7FEFF 		bl	HAL_GPIO_WritePin
 351              	.LVL19:
  71:Core/Src/7SegDisplay.c **** 
 352              		.loc 1 71 5 view .LVU51
 353 00c8 0022     		movs	r2, #0
 354 00ca 8021     		movs	r1, #128
 355 00cc 3046     		mov	r0, r6
 356 00ce FFF7FEFF 		bl	HAL_GPIO_WritePin
 357              	.LVL20:
 358 00d2 9DE7     		b	.L19
 359              	.L50:
  75:Core/Src/7SegDisplay.c ****     HAL_GPIO_WritePin(GPIOG,SEG_G1_Pin,1);
 360              		.loc 1 75 5 view .LVU52
 361 00d4 8B4E     		ldr	r6, .L52
 362 00d6 0022     		movs	r2, #0
 363 00d8 0421     		movs	r1, #4
 364 00da 3046     		mov	r0, r6
 365 00dc FFF7FEFF 		bl	HAL_GPIO_WritePin
 366              	.LVL21:
  76:Core/Src/7SegDisplay.c ****     HAL_GPIO_WritePin(GPIOG,SEG_G2_Pin,0);
 367              		.loc 1 76 5 view .LVU53
 368 00e0 0122     		movs	r2, #1
 369 00e2 0821     		movs	r1, #8
ARM GAS  C:\Temp\ccCqsu9M.s 			page 9


 370 00e4 3046     		mov	r0, r6
 371 00e6 FFF7FEFF 		bl	HAL_GPIO_WritePin
 372              	.LVL22:
  77:Core/Src/7SegDisplay.c ****   }
 373              		.loc 1 77 5 view .LVU54
 374 00ea 0022     		movs	r2, #0
 375 00ec 8021     		movs	r1, #128
 376 00ee 3046     		mov	r0, r6
 377 00f0 FFF7FEFF 		bl	HAL_GPIO_WritePin
 378              	.LVL23:
 379 00f4 8EE7     		b	.L20
 380              	.L51:
  80:Core/Src/7SegDisplay.c ****     HAL_GPIO_WritePin(GPIOG,SEG_G1_Pin,0);
 381              		.loc 1 80 5 view .LVU55
 382 00f6 834D     		ldr	r5, .L52
 383 00f8 0022     		movs	r2, #0
 384 00fa 0421     		movs	r1, #4
 385 00fc 2846     		mov	r0, r5
 386 00fe FFF7FEFF 		bl	HAL_GPIO_WritePin
 387              	.LVL24:
  81:Core/Src/7SegDisplay.c ****     HAL_GPIO_WritePin(GPIOG,SEG_G2_Pin,1);
 388              		.loc 1 81 5 view .LVU56
 389 0102 0022     		movs	r2, #0
 390 0104 0821     		movs	r1, #8
 391 0106 2846     		mov	r0, r5
 392 0108 FFF7FEFF 		bl	HAL_GPIO_WritePin
 393              	.LVL25:
  82:Core/Src/7SegDisplay.c ****   }
 394              		.loc 1 82 5 view .LVU57
 395 010c 0122     		movs	r2, #1
 396 010e 8021     		movs	r1, #128
 397 0110 2846     		mov	r0, r5
 398 0112 FFF7FEFF 		bl	HAL_GPIO_WritePin
 399              	.LVL26:
 400 0116 7FE7     		b	.L21
 401              	.L46:
  86:Core/Src/7SegDisplay.c ****     case '-':
  87:Core/Src/7SegDisplay.c ****       HAL_GPIO_WritePin(GPIOG, SEG_A_Pin, 0);
 402              		.loc 1 87 7 view .LVU58
 403 0118 7A4C     		ldr	r4, .L52
 404 011a 0022     		movs	r2, #0
 405 011c 1021     		movs	r1, #16
 406 011e 2046     		mov	r0, r4
 407 0120 FFF7FEFF 		bl	HAL_GPIO_WritePin
 408              	.LVL27:
  88:Core/Src/7SegDisplay.c ****       HAL_GPIO_WritePin(GPIOG, SEG_B_Pin, 0);
 409              		.loc 1 88 7 view .LVU59
 410 0124 0022     		movs	r2, #0
 411 0126 4021     		movs	r1, #64
 412 0128 2046     		mov	r0, r4
 413 012a FFF7FEFF 		bl	HAL_GPIO_WritePin
 414              	.LVL28:
  89:Core/Src/7SegDisplay.c ****       HAL_GPIO_WritePin(GPIOG, SEG_C_Pin, 0);
 415              		.loc 1 89 7 view .LVU60
 416 012e 0022     		movs	r2, #0
 417 0130 4FF40071 		mov	r1, #512
 418 0134 2046     		mov	r0, r4
ARM GAS  C:\Temp\ccCqsu9M.s 			page 10


 419 0136 FFF7FEFF 		bl	HAL_GPIO_WritePin
 420              	.LVL29:
  90:Core/Src/7SegDisplay.c ****       HAL_GPIO_WritePin(GPIOG, SEG_D_Pin, 0);
 421              		.loc 1 90 7 view .LVU61
 422 013a 0022     		movs	r2, #0
 423 013c 4FF40061 		mov	r1, #2048
 424 0140 2046     		mov	r0, r4
 425 0142 FFF7FEFF 		bl	HAL_GPIO_WritePin
 426              	.LVL30:
  91:Core/Src/7SegDisplay.c ****       HAL_GPIO_WritePin(GPIOG, SEG_E_Pin, 0);
 427              		.loc 1 91 7 view .LVU62
 428 0146 0022     		movs	r2, #0
 429 0148 4FF48051 		mov	r1, #4096
 430 014c 2046     		mov	r0, r4
 431 014e FFF7FEFF 		bl	HAL_GPIO_WritePin
 432              	.LVL31:
  92:Core/Src/7SegDisplay.c ****       HAL_GPIO_WritePin(GPIOG, SEG_F_Pin, 0);
 433              		.loc 1 92 7 view .LVU63
 434 0152 0022     		movs	r2, #0
 435 0154 2021     		movs	r1, #32
 436 0156 2046     		mov	r0, r4
 437 0158 FFF7FEFF 		bl	HAL_GPIO_WritePin
 438              	.LVL32:
  93:Core/Src/7SegDisplay.c ****       HAL_GPIO_WritePin(GPIOG, SEG_G_Pin, 1);
 439              		.loc 1 93 7 view .LVU64
 440 015c 0122     		movs	r2, #1
 441 015e 4FF48071 		mov	r1, #256
 442 0162 2046     		mov	r0, r4
 443 0164 FFF7FEFF 		bl	HAL_GPIO_WritePin
 444              	.LVL33:
  94:Core/Src/7SegDisplay.c ****       break;
 445              		.loc 1 94 7 view .LVU65
 446              	.L18:
  95:Core/Src/7SegDisplay.c ****     case '0':
  96:Core/Src/7SegDisplay.c ****       HAL_GPIO_WritePin(GPIOG, SEG_A_Pin, 1);
  97:Core/Src/7SegDisplay.c ****       HAL_GPIO_WritePin(GPIOG, SEG_B_Pin, 1);
  98:Core/Src/7SegDisplay.c ****       HAL_GPIO_WritePin(GPIOG, SEG_C_Pin, 1);
  99:Core/Src/7SegDisplay.c ****       HAL_GPIO_WritePin(GPIOG, SEG_D_Pin, 1);
 100:Core/Src/7SegDisplay.c ****       HAL_GPIO_WritePin(GPIOG, SEG_E_Pin, 1);
 101:Core/Src/7SegDisplay.c ****       HAL_GPIO_WritePin(GPIOG, SEG_F_Pin, 1);
 102:Core/Src/7SegDisplay.c ****       HAL_GPIO_WritePin(GPIOG, SEG_G_Pin, 0);
 103:Core/Src/7SegDisplay.c ****       break;
 104:Core/Src/7SegDisplay.c ****     case '1':
 105:Core/Src/7SegDisplay.c ****       HAL_GPIO_WritePin(GPIOG, SEG_A_Pin, 0);
 106:Core/Src/7SegDisplay.c ****       HAL_GPIO_WritePin(GPIOG, SEG_B_Pin, 1);
 107:Core/Src/7SegDisplay.c ****       HAL_GPIO_WritePin(GPIOG, SEG_C_Pin, 1);
 108:Core/Src/7SegDisplay.c ****       HAL_GPIO_WritePin(GPIOG, SEG_D_Pin, 0);
 109:Core/Src/7SegDisplay.c ****       HAL_GPIO_WritePin(GPIOG, SEG_E_Pin, 0);
 110:Core/Src/7SegDisplay.c ****       HAL_GPIO_WritePin(GPIOG, SEG_F_Pin, 0);
 111:Core/Src/7SegDisplay.c ****       HAL_GPIO_WritePin(GPIOG, SEG_G_Pin, 0);
 112:Core/Src/7SegDisplay.c ****       break;
 113:Core/Src/7SegDisplay.c ****     case '2':
 114:Core/Src/7SegDisplay.c ****       HAL_GPIO_WritePin(GPIOG, SEG_A_Pin, 1);
 115:Core/Src/7SegDisplay.c ****       HAL_GPIO_WritePin(GPIOG, SEG_B_Pin, 1);
 116:Core/Src/7SegDisplay.c ****       HAL_GPIO_WritePin(GPIOG, SEG_C_Pin, 0);
 117:Core/Src/7SegDisplay.c ****       HAL_GPIO_WritePin(GPIOG, SEG_D_Pin, 1);
 118:Core/Src/7SegDisplay.c ****       HAL_GPIO_WritePin(GPIOG, SEG_E_Pin, 1);
ARM GAS  C:\Temp\ccCqsu9M.s 			page 11


 119:Core/Src/7SegDisplay.c ****       HAL_GPIO_WritePin(GPIOG, SEG_F_Pin, 0);
 120:Core/Src/7SegDisplay.c ****       HAL_GPIO_WritePin(GPIOG, SEG_G_Pin, 1);
 121:Core/Src/7SegDisplay.c ****       break;
 122:Core/Src/7SegDisplay.c ****     case '3':
 123:Core/Src/7SegDisplay.c ****       HAL_GPIO_WritePin(GPIOG, SEG_A_Pin, 1);
 124:Core/Src/7SegDisplay.c ****       HAL_GPIO_WritePin(GPIOG, SEG_B_Pin, 1);
 125:Core/Src/7SegDisplay.c ****       HAL_GPIO_WritePin(GPIOG, SEG_C_Pin, 1);
 126:Core/Src/7SegDisplay.c ****       HAL_GPIO_WritePin(GPIOG, SEG_D_Pin, 1);
 127:Core/Src/7SegDisplay.c ****       HAL_GPIO_WritePin(GPIOG, SEG_E_Pin, 0);
 128:Core/Src/7SegDisplay.c ****       HAL_GPIO_WritePin(GPIOG, SEG_F_Pin, 0);
 129:Core/Src/7SegDisplay.c ****       HAL_GPIO_WritePin(GPIOG, SEG_G_Pin, 1);
 130:Core/Src/7SegDisplay.c ****       break;
 131:Core/Src/7SegDisplay.c ****     case '4':
 132:Core/Src/7SegDisplay.c ****       HAL_GPIO_WritePin(GPIOG, SEG_A_Pin, 0);
 133:Core/Src/7SegDisplay.c ****       HAL_GPIO_WritePin(GPIOG, SEG_B_Pin, 1);
 134:Core/Src/7SegDisplay.c ****       HAL_GPIO_WritePin(GPIOG, SEG_C_Pin, 1);
 135:Core/Src/7SegDisplay.c ****       HAL_GPIO_WritePin(GPIOG, SEG_D_Pin, 0);
 136:Core/Src/7SegDisplay.c ****       HAL_GPIO_WritePin(GPIOG, SEG_E_Pin, 0);
 137:Core/Src/7SegDisplay.c ****       HAL_GPIO_WritePin(GPIOG, SEG_F_Pin, 1);
 138:Core/Src/7SegDisplay.c ****       HAL_GPIO_WritePin(GPIOG, SEG_G_Pin, 1);
 139:Core/Src/7SegDisplay.c ****       break;
 140:Core/Src/7SegDisplay.c ****     case '5':
 141:Core/Src/7SegDisplay.c ****       HAL_GPIO_WritePin(GPIOG, SEG_A_Pin, 1);
 142:Core/Src/7SegDisplay.c ****       HAL_GPIO_WritePin(GPIOG, SEG_B_Pin, 0);
 143:Core/Src/7SegDisplay.c ****       HAL_GPIO_WritePin(GPIOG, SEG_C_Pin, 1);
 144:Core/Src/7SegDisplay.c ****       HAL_GPIO_WritePin(GPIOG, SEG_D_Pin, 1);
 145:Core/Src/7SegDisplay.c ****       HAL_GPIO_WritePin(GPIOG, SEG_E_Pin, 0);
 146:Core/Src/7SegDisplay.c ****       HAL_GPIO_WritePin(GPIOG, SEG_F_Pin, 1);
 147:Core/Src/7SegDisplay.c ****       HAL_GPIO_WritePin(GPIOG, SEG_G_Pin, 1);
 148:Core/Src/7SegDisplay.c ****       break;
 149:Core/Src/7SegDisplay.c ****     case '6':
 150:Core/Src/7SegDisplay.c ****       HAL_GPIO_WritePin(GPIOG, SEG_A_Pin, 1);
 151:Core/Src/7SegDisplay.c ****       HAL_GPIO_WritePin(GPIOG, SEG_B_Pin, 0);
 152:Core/Src/7SegDisplay.c ****       HAL_GPIO_WritePin(GPIOG, SEG_C_Pin, 1);
 153:Core/Src/7SegDisplay.c ****       HAL_GPIO_WritePin(GPIOG, SEG_D_Pin, 1);
 154:Core/Src/7SegDisplay.c ****       HAL_GPIO_WritePin(GPIOG, SEG_E_Pin, 1);
 155:Core/Src/7SegDisplay.c ****       HAL_GPIO_WritePin(GPIOG, SEG_F_Pin, 1);
 156:Core/Src/7SegDisplay.c ****       HAL_GPIO_WritePin(GPIOG, SEG_G_Pin, 1);
 157:Core/Src/7SegDisplay.c ****       break;
 158:Core/Src/7SegDisplay.c ****     case '7':
 159:Core/Src/7SegDisplay.c ****       HAL_GPIO_WritePin(GPIOG, SEG_A_Pin, 1);
 160:Core/Src/7SegDisplay.c ****       HAL_GPIO_WritePin(GPIOG, SEG_B_Pin, 1);
 161:Core/Src/7SegDisplay.c ****       HAL_GPIO_WritePin(GPIOG, SEG_C_Pin, 1);
 162:Core/Src/7SegDisplay.c ****       HAL_GPIO_WritePin(GPIOG, SEG_D_Pin, 0);
 163:Core/Src/7SegDisplay.c ****       HAL_GPIO_WritePin(GPIOG, SEG_E_Pin, 0);
 164:Core/Src/7SegDisplay.c ****       HAL_GPIO_WritePin(GPIOG, SEG_F_Pin, 0);
 165:Core/Src/7SegDisplay.c ****       HAL_GPIO_WritePin(GPIOG, SEG_G_Pin, 0);
 166:Core/Src/7SegDisplay.c ****       break;
 167:Core/Src/7SegDisplay.c ****     case '8':
 168:Core/Src/7SegDisplay.c ****       HAL_GPIO_WritePin(GPIOG, SEG_A_Pin, 1);
 169:Core/Src/7SegDisplay.c ****       HAL_GPIO_WritePin(GPIOG, SEG_B_Pin, 1);
 170:Core/Src/7SegDisplay.c ****       HAL_GPIO_WritePin(GPIOG, SEG_C_Pin, 1);
 171:Core/Src/7SegDisplay.c ****       HAL_GPIO_WritePin(GPIOG, SEG_D_Pin, 1);
 172:Core/Src/7SegDisplay.c ****       HAL_GPIO_WritePin(GPIOG, SEG_E_Pin, 1);
 173:Core/Src/7SegDisplay.c ****       HAL_GPIO_WritePin(GPIOG, SEG_F_Pin, 1);
 174:Core/Src/7SegDisplay.c ****       HAL_GPIO_WritePin(GPIOG, SEG_G_Pin, 1);
 175:Core/Src/7SegDisplay.c ****       break;
ARM GAS  C:\Temp\ccCqsu9M.s 			page 12


 176:Core/Src/7SegDisplay.c ****     case '9':
 177:Core/Src/7SegDisplay.c ****       HAL_GPIO_WritePin(GPIOG, SEG_A_Pin, 1);
 178:Core/Src/7SegDisplay.c ****       HAL_GPIO_WritePin(GPIOG, SEG_B_Pin, 1);
 179:Core/Src/7SegDisplay.c ****       HAL_GPIO_WritePin(GPIOG, SEG_C_Pin, 1);
 180:Core/Src/7SegDisplay.c ****       HAL_GPIO_WritePin(GPIOG, SEG_D_Pin, 0);
 181:Core/Src/7SegDisplay.c ****       HAL_GPIO_WritePin(GPIOG, SEG_E_Pin, 0);
 182:Core/Src/7SegDisplay.c ****       HAL_GPIO_WritePin(GPIOG, SEG_F_Pin, 1);
 183:Core/Src/7SegDisplay.c ****       HAL_GPIO_WritePin(GPIOG, SEG_G_Pin, 1);
 184:Core/Src/7SegDisplay.c ****       break;
 185:Core/Src/7SegDisplay.c ****     case 'A':
 186:Core/Src/7SegDisplay.c ****       HAL_GPIO_WritePin(GPIOG, SEG_A_Pin, 1);
 187:Core/Src/7SegDisplay.c ****       HAL_GPIO_WritePin(GPIOG, SEG_B_Pin, 1);
 188:Core/Src/7SegDisplay.c ****       HAL_GPIO_WritePin(GPIOG, SEG_C_Pin, 1);
 189:Core/Src/7SegDisplay.c ****       HAL_GPIO_WritePin(GPIOG, SEG_D_Pin, 0);
 190:Core/Src/7SegDisplay.c ****       HAL_GPIO_WritePin(GPIOG, SEG_E_Pin, 1);
 191:Core/Src/7SegDisplay.c ****       HAL_GPIO_WritePin(GPIOG, SEG_F_Pin, 1);
 192:Core/Src/7SegDisplay.c ****       HAL_GPIO_WritePin(GPIOG, SEG_G_Pin, 1);
 193:Core/Src/7SegDisplay.c ****       break;
 194:Core/Src/7SegDisplay.c ****     case 'B':
 195:Core/Src/7SegDisplay.c ****       HAL_GPIO_WritePin(GPIOG, SEG_A_Pin, 0);
 196:Core/Src/7SegDisplay.c ****       HAL_GPIO_WritePin(GPIOG, SEG_B_Pin, 0);
 197:Core/Src/7SegDisplay.c ****       HAL_GPIO_WritePin(GPIOG, SEG_C_Pin, 1);
 198:Core/Src/7SegDisplay.c ****       HAL_GPIO_WritePin(GPIOG, SEG_D_Pin, 1);
 199:Core/Src/7SegDisplay.c ****       HAL_GPIO_WritePin(GPIOG, SEG_E_Pin, 1);
 200:Core/Src/7SegDisplay.c ****       HAL_GPIO_WritePin(GPIOG, SEG_F_Pin, 1);
 201:Core/Src/7SegDisplay.c ****       HAL_GPIO_WritePin(GPIOG, SEG_G_Pin, 1);
 202:Core/Src/7SegDisplay.c ****       break;
 203:Core/Src/7SegDisplay.c ****     case 'C':
 204:Core/Src/7SegDisplay.c ****       HAL_GPIO_WritePin(GPIOG, SEG_A_Pin, 1);
 205:Core/Src/7SegDisplay.c ****       HAL_GPIO_WritePin(GPIOG, SEG_B_Pin, 0);
 206:Core/Src/7SegDisplay.c ****       HAL_GPIO_WritePin(GPIOG, SEG_C_Pin, 0);
 207:Core/Src/7SegDisplay.c ****       HAL_GPIO_WritePin(GPIOG, SEG_D_Pin, 1);
 208:Core/Src/7SegDisplay.c ****       HAL_GPIO_WritePin(GPIOG, SEG_E_Pin, 1);
 209:Core/Src/7SegDisplay.c ****       HAL_GPIO_WritePin(GPIOG, SEG_F_Pin, 0);
 210:Core/Src/7SegDisplay.c ****       HAL_GPIO_WritePin(GPIOG, SEG_G_Pin, 1);
 211:Core/Src/7SegDisplay.c ****       break;
 212:Core/Src/7SegDisplay.c ****     case 'D':
 213:Core/Src/7SegDisplay.c ****       HAL_GPIO_WritePin(GPIOG, SEG_A_Pin, 0);
 214:Core/Src/7SegDisplay.c ****       HAL_GPIO_WritePin(GPIOG, SEG_B_Pin, 1);
 215:Core/Src/7SegDisplay.c ****       HAL_GPIO_WritePin(GPIOG, SEG_C_Pin, 1);
 216:Core/Src/7SegDisplay.c ****       HAL_GPIO_WritePin(GPIOG, SEG_D_Pin, 1);
 217:Core/Src/7SegDisplay.c ****       HAL_GPIO_WritePin(GPIOG, SEG_E_Pin, 1);
 218:Core/Src/7SegDisplay.c ****       HAL_GPIO_WritePin(GPIOG, SEG_F_Pin, 0);
 219:Core/Src/7SegDisplay.c ****       HAL_GPIO_WritePin(GPIOG, SEG_G_Pin, 1);
 220:Core/Src/7SegDisplay.c ****       break;
 221:Core/Src/7SegDisplay.c ****     case 'E':
 222:Core/Src/7SegDisplay.c ****       HAL_GPIO_WritePin(GPIOG, SEG_A_Pin, 1);
 223:Core/Src/7SegDisplay.c ****       HAL_GPIO_WritePin(GPIOG, SEG_B_Pin, 0);
 224:Core/Src/7SegDisplay.c ****       HAL_GPIO_WritePin(GPIOG, SEG_C_Pin, 0);
 225:Core/Src/7SegDisplay.c ****       HAL_GPIO_WritePin(GPIOG, SEG_D_Pin, 1);
 226:Core/Src/7SegDisplay.c ****       HAL_GPIO_WritePin(GPIOG, SEG_E_Pin, 1);
 227:Core/Src/7SegDisplay.c ****       HAL_GPIO_WritePin(GPIOG, SEG_F_Pin, 1);
 228:Core/Src/7SegDisplay.c ****       HAL_GPIO_WritePin(GPIOG, SEG_G_Pin, 1);
 229:Core/Src/7SegDisplay.c ****       break;
 230:Core/Src/7SegDisplay.c ****     case 'F':
 231:Core/Src/7SegDisplay.c ****       HAL_GPIO_WritePin(GPIOG, SEG_A_Pin, 1);
 232:Core/Src/7SegDisplay.c ****       HAL_GPIO_WritePin(GPIOG, SEG_B_Pin, 0);
ARM GAS  C:\Temp\ccCqsu9M.s 			page 13


 233:Core/Src/7SegDisplay.c ****       HAL_GPIO_WritePin(GPIOG, SEG_C_Pin, 0);
 234:Core/Src/7SegDisplay.c ****       HAL_GPIO_WritePin(GPIOG, SEG_D_Pin, 0);
 235:Core/Src/7SegDisplay.c ****       HAL_GPIO_WritePin(GPIOG, SEG_E_Pin, 1);
 236:Core/Src/7SegDisplay.c ****       HAL_GPIO_WritePin(GPIOG, SEG_F_Pin, 1);
 237:Core/Src/7SegDisplay.c ****       HAL_GPIO_WritePin(GPIOG, SEG_G_Pin, 1);
 238:Core/Src/7SegDisplay.c ****       break;
 239:Core/Src/7SegDisplay.c ****     case 'G':
 240:Core/Src/7SegDisplay.c ****       HAL_GPIO_WritePin(GPIOG, SEG_A_Pin, 1);
 241:Core/Src/7SegDisplay.c ****       HAL_GPIO_WritePin(GPIOG, SEG_B_Pin, 0);
 242:Core/Src/7SegDisplay.c ****       HAL_GPIO_WritePin(GPIOG, SEG_C_Pin, 1);
 243:Core/Src/7SegDisplay.c ****       HAL_GPIO_WritePin(GPIOG, SEG_D_Pin, 1);
 244:Core/Src/7SegDisplay.c ****       HAL_GPIO_WritePin(GPIOG, SEG_E_Pin, 1);
 245:Core/Src/7SegDisplay.c ****       HAL_GPIO_WritePin(GPIOG, SEG_F_Pin, 1);
 246:Core/Src/7SegDisplay.c ****       HAL_GPIO_WritePin(GPIOG, SEG_G_Pin, 0);
 247:Core/Src/7SegDisplay.c ****       break;
 248:Core/Src/7SegDisplay.c ****     case 'H':
 249:Core/Src/7SegDisplay.c ****       HAL_GPIO_WritePin(GPIOG, SEG_A_Pin, 0);
 250:Core/Src/7SegDisplay.c ****       HAL_GPIO_WritePin(GPIOG, SEG_B_Pin, 1);
 251:Core/Src/7SegDisplay.c ****       HAL_GPIO_WritePin(GPIOG, SEG_C_Pin, 1);
 252:Core/Src/7SegDisplay.c ****       HAL_GPIO_WritePin(GPIOG, SEG_D_Pin, 0);
 253:Core/Src/7SegDisplay.c ****       HAL_GPIO_WritePin(GPIOG, SEG_E_Pin, 1);
 254:Core/Src/7SegDisplay.c ****       HAL_GPIO_WritePin(GPIOG, SEG_F_Pin, 1);
 255:Core/Src/7SegDisplay.c ****       HAL_GPIO_WritePin(GPIOG, SEG_G_Pin, 1);
 256:Core/Src/7SegDisplay.c ****       break;
 257:Core/Src/7SegDisplay.c ****     case 'I':
 258:Core/Src/7SegDisplay.c ****       HAL_GPIO_WritePin(GPIOG, SEG_A_Pin, 0);
 259:Core/Src/7SegDisplay.c ****       HAL_GPIO_WritePin(GPIOG, SEG_B_Pin, 0);
 260:Core/Src/7SegDisplay.c ****       HAL_GPIO_WritePin(GPIOG, SEG_C_Pin, 0);
 261:Core/Src/7SegDisplay.c ****       HAL_GPIO_WritePin(GPIOG, SEG_D_Pin, 0);
 262:Core/Src/7SegDisplay.c ****       HAL_GPIO_WritePin(GPIOG, SEG_E_Pin, 1);
 263:Core/Src/7SegDisplay.c ****       HAL_GPIO_WritePin(GPIOG, SEG_F_Pin, 1);
 264:Core/Src/7SegDisplay.c ****       HAL_GPIO_WritePin(GPIOG, SEG_G_Pin, 0);
 265:Core/Src/7SegDisplay.c ****       break;
 266:Core/Src/7SegDisplay.c ****     case 'r':
 267:Core/Src/7SegDisplay.c ****       HAL_GPIO_WritePin(GPIOG, SEG_A_Pin, 0);
 268:Core/Src/7SegDisplay.c ****       HAL_GPIO_WritePin(GPIOG, SEG_B_Pin, 0);
 269:Core/Src/7SegDisplay.c ****       HAL_GPIO_WritePin(GPIOG, SEG_C_Pin, 0);
 270:Core/Src/7SegDisplay.c ****       HAL_GPIO_WritePin(GPIOG, SEG_D_Pin, 0);
 271:Core/Src/7SegDisplay.c ****       HAL_GPIO_WritePin(GPIOG, SEG_E_Pin, 1);
 272:Core/Src/7SegDisplay.c ****       HAL_GPIO_WritePin(GPIOG, SEG_F_Pin, 0);
 273:Core/Src/7SegDisplay.c ****       HAL_GPIO_WritePin(GPIOG, SEG_G_Pin, 1);
 274:Core/Src/7SegDisplay.c ****       break;
 275:Core/Src/7SegDisplay.c ****     case 'U':
 276:Core/Src/7SegDisplay.c ****       HAL_GPIO_WritePin(GPIOG, SEG_A_Pin, 0);
 277:Core/Src/7SegDisplay.c ****       HAL_GPIO_WritePin(GPIOG, SEG_B_Pin, 1);
 278:Core/Src/7SegDisplay.c ****       HAL_GPIO_WritePin(GPIOG, SEG_C_Pin, 1);
 279:Core/Src/7SegDisplay.c ****       HAL_GPIO_WritePin(GPIOG, SEG_D_Pin, 1);
 280:Core/Src/7SegDisplay.c ****       HAL_GPIO_WritePin(GPIOG, SEG_E_Pin, 1);
 281:Core/Src/7SegDisplay.c ****       HAL_GPIO_WritePin(GPIOG, SEG_F_Pin, 1);
 282:Core/Src/7SegDisplay.c ****       HAL_GPIO_WritePin(GPIOG, SEG_G_Pin, 0);
 283:Core/Src/7SegDisplay.c ****       break;
 284:Core/Src/7SegDisplay.c ****     case 'S':
 285:Core/Src/7SegDisplay.c ****       HAL_GPIO_WritePin(GPIOG, SEG_A_Pin, 1);
 286:Core/Src/7SegDisplay.c ****       HAL_GPIO_WritePin(GPIOG, SEG_B_Pin, 0);
 287:Core/Src/7SegDisplay.c ****       HAL_GPIO_WritePin(GPIOG, SEG_C_Pin, 1);
 288:Core/Src/7SegDisplay.c ****       HAL_GPIO_WritePin(GPIOG, SEG_D_Pin, 1);
 289:Core/Src/7SegDisplay.c ****       HAL_GPIO_WritePin(GPIOG, SEG_E_Pin, 0);
ARM GAS  C:\Temp\ccCqsu9M.s 			page 14


 290:Core/Src/7SegDisplay.c ****       HAL_GPIO_WritePin(GPIOG, SEG_F_Pin, 1);
 291:Core/Src/7SegDisplay.c ****       HAL_GPIO_WritePin(GPIOG, SEG_G_Pin, 1);
 292:Core/Src/7SegDisplay.c ****       break;
 293:Core/Src/7SegDisplay.c ****     default:
 294:Core/Src/7SegDisplay.c ****       // Handle unsupported characters or display nothing
 295:Core/Src/7SegDisplay.c ****       break;
 296:Core/Src/7SegDisplay.c ****   }
 297:Core/Src/7SegDisplay.c ****  
 298:Core/Src/7SegDisplay.c **** }
 447              		.loc 1 298 1 is_stmt 0 view .LVU66
 448 0168 70BD     		pop	{r4, r5, r6, pc}
 449              	.L45:
  96:Core/Src/7SegDisplay.c ****       HAL_GPIO_WritePin(GPIOG, SEG_B_Pin, 1);
 450              		.loc 1 96 7 is_stmt 1 view .LVU67
 451 016a 664C     		ldr	r4, .L52
 452 016c 0122     		movs	r2, #1
 453 016e 1021     		movs	r1, #16
 454 0170 2046     		mov	r0, r4
 455 0172 FFF7FEFF 		bl	HAL_GPIO_WritePin
 456              	.LVL34:
  97:Core/Src/7SegDisplay.c ****       HAL_GPIO_WritePin(GPIOG, SEG_C_Pin, 1);
 457              		.loc 1 97 7 view .LVU68
 458 0176 0122     		movs	r2, #1
 459 0178 4021     		movs	r1, #64
 460 017a 2046     		mov	r0, r4
 461 017c FFF7FEFF 		bl	HAL_GPIO_WritePin
 462              	.LVL35:
  98:Core/Src/7SegDisplay.c ****       HAL_GPIO_WritePin(GPIOG, SEG_D_Pin, 1);
 463              		.loc 1 98 7 view .LVU69
 464 0180 0122     		movs	r2, #1
 465 0182 4FF40071 		mov	r1, #512
 466 0186 2046     		mov	r0, r4
 467 0188 FFF7FEFF 		bl	HAL_GPIO_WritePin
 468              	.LVL36:
  99:Core/Src/7SegDisplay.c ****       HAL_GPIO_WritePin(GPIOG, SEG_E_Pin, 1);
 469              		.loc 1 99 7 view .LVU70
 470 018c 0122     		movs	r2, #1
 471 018e 4FF40061 		mov	r1, #2048
 472 0192 2046     		mov	r0, r4
 473 0194 FFF7FEFF 		bl	HAL_GPIO_WritePin
 474              	.LVL37:
 100:Core/Src/7SegDisplay.c ****       HAL_GPIO_WritePin(GPIOG, SEG_F_Pin, 1);
 475              		.loc 1 100 7 view .LVU71
 476 0198 0122     		movs	r2, #1
 477 019a 4FF48051 		mov	r1, #4096
 478 019e 2046     		mov	r0, r4
 479 01a0 FFF7FEFF 		bl	HAL_GPIO_WritePin
 480              	.LVL38:
 101:Core/Src/7SegDisplay.c ****       HAL_GPIO_WritePin(GPIOG, SEG_G_Pin, 0);
 481              		.loc 1 101 7 view .LVU72
 482 01a4 0122     		movs	r2, #1
 483 01a6 2021     		movs	r1, #32
 484 01a8 2046     		mov	r0, r4
 485 01aa FFF7FEFF 		bl	HAL_GPIO_WritePin
 486              	.LVL39:
 102:Core/Src/7SegDisplay.c ****       break;
 487              		.loc 1 102 7 view .LVU73
ARM GAS  C:\Temp\ccCqsu9M.s 			page 15


 488 01ae 0022     		movs	r2, #0
 489 01b0 4FF48071 		mov	r1, #256
 490 01b4 2046     		mov	r0, r4
 491 01b6 FFF7FEFF 		bl	HAL_GPIO_WritePin
 492              	.LVL40:
 103:Core/Src/7SegDisplay.c ****     case '1':
 493              		.loc 1 103 7 view .LVU74
 494 01ba D5E7     		b	.L18
 495              	.L44:
 105:Core/Src/7SegDisplay.c ****       HAL_GPIO_WritePin(GPIOG, SEG_B_Pin, 1);
 496              		.loc 1 105 7 view .LVU75
 497 01bc 514C     		ldr	r4, .L52
 498 01be 0022     		movs	r2, #0
 499 01c0 1021     		movs	r1, #16
 500 01c2 2046     		mov	r0, r4
 501 01c4 FFF7FEFF 		bl	HAL_GPIO_WritePin
 502              	.LVL41:
 106:Core/Src/7SegDisplay.c ****       HAL_GPIO_WritePin(GPIOG, SEG_C_Pin, 1);
 503              		.loc 1 106 7 view .LVU76
 504 01c8 0122     		movs	r2, #1
 505 01ca 4021     		movs	r1, #64
 506 01cc 2046     		mov	r0, r4
 507 01ce FFF7FEFF 		bl	HAL_GPIO_WritePin
 508              	.LVL42:
 107:Core/Src/7SegDisplay.c ****       HAL_GPIO_WritePin(GPIOG, SEG_D_Pin, 0);
 509              		.loc 1 107 7 view .LVU77
 510 01d2 0122     		movs	r2, #1
 511 01d4 4FF40071 		mov	r1, #512
 512 01d8 2046     		mov	r0, r4
 513 01da FFF7FEFF 		bl	HAL_GPIO_WritePin
 514              	.LVL43:
 108:Core/Src/7SegDisplay.c ****       HAL_GPIO_WritePin(GPIOG, SEG_E_Pin, 0);
 515              		.loc 1 108 7 view .LVU78
 516 01de 0022     		movs	r2, #0
 517 01e0 4FF40061 		mov	r1, #2048
 518 01e4 2046     		mov	r0, r4
 519 01e6 FFF7FEFF 		bl	HAL_GPIO_WritePin
 520              	.LVL44:
 109:Core/Src/7SegDisplay.c ****       HAL_GPIO_WritePin(GPIOG, SEG_F_Pin, 0);
 521              		.loc 1 109 7 view .LVU79
 522 01ea 0022     		movs	r2, #0
 523 01ec 4FF48051 		mov	r1, #4096
 524 01f0 2046     		mov	r0, r4
 525 01f2 FFF7FEFF 		bl	HAL_GPIO_WritePin
 526              	.LVL45:
 110:Core/Src/7SegDisplay.c ****       HAL_GPIO_WritePin(GPIOG, SEG_G_Pin, 0);
 527              		.loc 1 110 7 view .LVU80
 528 01f6 0022     		movs	r2, #0
 529 01f8 2021     		movs	r1, #32
 530 01fa 2046     		mov	r0, r4
 531 01fc FFF7FEFF 		bl	HAL_GPIO_WritePin
 532              	.LVL46:
 111:Core/Src/7SegDisplay.c ****       break;
 533              		.loc 1 111 7 view .LVU81
 534 0200 0022     		movs	r2, #0
 535 0202 4FF48071 		mov	r1, #256
 536 0206 2046     		mov	r0, r4
ARM GAS  C:\Temp\ccCqsu9M.s 			page 16


 537 0208 FFF7FEFF 		bl	HAL_GPIO_WritePin
 538              	.LVL47:
 112:Core/Src/7SegDisplay.c ****     case '2':
 539              		.loc 1 112 7 view .LVU82
 540 020c ACE7     		b	.L18
 541              	.L43:
 114:Core/Src/7SegDisplay.c ****       HAL_GPIO_WritePin(GPIOG, SEG_B_Pin, 1);
 542              		.loc 1 114 7 view .LVU83
 543 020e 3D4C     		ldr	r4, .L52
 544 0210 0122     		movs	r2, #1
 545 0212 1021     		movs	r1, #16
 546 0214 2046     		mov	r0, r4
 547 0216 FFF7FEFF 		bl	HAL_GPIO_WritePin
 548              	.LVL48:
 115:Core/Src/7SegDisplay.c ****       HAL_GPIO_WritePin(GPIOG, SEG_C_Pin, 0);
 549              		.loc 1 115 7 view .LVU84
 550 021a 0122     		movs	r2, #1
 551 021c 4021     		movs	r1, #64
 552 021e 2046     		mov	r0, r4
 553 0220 FFF7FEFF 		bl	HAL_GPIO_WritePin
 554              	.LVL49:
 116:Core/Src/7SegDisplay.c ****       HAL_GPIO_WritePin(GPIOG, SEG_D_Pin, 1);
 555              		.loc 1 116 7 view .LVU85
 556 0224 0022     		movs	r2, #0
 557 0226 4FF40071 		mov	r1, #512
 558 022a 2046     		mov	r0, r4
 559 022c FFF7FEFF 		bl	HAL_GPIO_WritePin
 560              	.LVL50:
 117:Core/Src/7SegDisplay.c ****       HAL_GPIO_WritePin(GPIOG, SEG_E_Pin, 1);
 561              		.loc 1 117 7 view .LVU86
 562 0230 0122     		movs	r2, #1
 563 0232 4FF40061 		mov	r1, #2048
 564 0236 2046     		mov	r0, r4
 565 0238 FFF7FEFF 		bl	HAL_GPIO_WritePin
 566              	.LVL51:
 118:Core/Src/7SegDisplay.c ****       HAL_GPIO_WritePin(GPIOG, SEG_F_Pin, 0);
 567              		.loc 1 118 7 view .LVU87
 568 023c 0122     		movs	r2, #1
 569 023e 4FF48051 		mov	r1, #4096
 570 0242 2046     		mov	r0, r4
 571 0244 FFF7FEFF 		bl	HAL_GPIO_WritePin
 572              	.LVL52:
 119:Core/Src/7SegDisplay.c ****       HAL_GPIO_WritePin(GPIOG, SEG_G_Pin, 1);
 573              		.loc 1 119 7 view .LVU88
 574 0248 0022     		movs	r2, #0
 575 024a 2021     		movs	r1, #32
 576 024c 2046     		mov	r0, r4
 577 024e FFF7FEFF 		bl	HAL_GPIO_WritePin
 578              	.LVL53:
 120:Core/Src/7SegDisplay.c ****       break;
 579              		.loc 1 120 7 view .LVU89
 580 0252 0122     		movs	r2, #1
 581 0254 4FF48071 		mov	r1, #256
 582 0258 2046     		mov	r0, r4
 583 025a FFF7FEFF 		bl	HAL_GPIO_WritePin
 584              	.LVL54:
 121:Core/Src/7SegDisplay.c ****     case '3':
ARM GAS  C:\Temp\ccCqsu9M.s 			page 17


 585              		.loc 1 121 7 view .LVU90
 586 025e 83E7     		b	.L18
 587              	.L42:
 123:Core/Src/7SegDisplay.c ****       HAL_GPIO_WritePin(GPIOG, SEG_B_Pin, 1);
 588              		.loc 1 123 7 view .LVU91
 589 0260 284C     		ldr	r4, .L52
 590 0262 0122     		movs	r2, #1
 591 0264 1021     		movs	r1, #16
 592 0266 2046     		mov	r0, r4
 593 0268 FFF7FEFF 		bl	HAL_GPIO_WritePin
 594              	.LVL55:
 124:Core/Src/7SegDisplay.c ****       HAL_GPIO_WritePin(GPIOG, SEG_C_Pin, 1);
 595              		.loc 1 124 7 view .LVU92
 596 026c 0122     		movs	r2, #1
 597 026e 4021     		movs	r1, #64
 598 0270 2046     		mov	r0, r4
 599 0272 FFF7FEFF 		bl	HAL_GPIO_WritePin
 600              	.LVL56:
 125:Core/Src/7SegDisplay.c ****       HAL_GPIO_WritePin(GPIOG, SEG_D_Pin, 1);
 601              		.loc 1 125 7 view .LVU93
 602 0276 0122     		movs	r2, #1
 603 0278 4FF40071 		mov	r1, #512
 604 027c 2046     		mov	r0, r4
 605 027e FFF7FEFF 		bl	HAL_GPIO_WritePin
 606              	.LVL57:
 126:Core/Src/7SegDisplay.c ****       HAL_GPIO_WritePin(GPIOG, SEG_E_Pin, 0);
 607              		.loc 1 126 7 view .LVU94
 608 0282 0122     		movs	r2, #1
 609 0284 4FF40061 		mov	r1, #2048
 610 0288 2046     		mov	r0, r4
 611 028a FFF7FEFF 		bl	HAL_GPIO_WritePin
 612              	.LVL58:
 127:Core/Src/7SegDisplay.c ****       HAL_GPIO_WritePin(GPIOG, SEG_F_Pin, 0);
 613              		.loc 1 127 7 view .LVU95
 614 028e 0022     		movs	r2, #0
 615 0290 4FF48051 		mov	r1, #4096
 616 0294 2046     		mov	r0, r4
 617 0296 FFF7FEFF 		bl	HAL_GPIO_WritePin
 618              	.LVL59:
 128:Core/Src/7SegDisplay.c ****       HAL_GPIO_WritePin(GPIOG, SEG_G_Pin, 1);
 619              		.loc 1 128 7 view .LVU96
 620 029a 0022     		movs	r2, #0
 621 029c 2021     		movs	r1, #32
 622 029e 2046     		mov	r0, r4
 623 02a0 FFF7FEFF 		bl	HAL_GPIO_WritePin
 624              	.LVL60:
 129:Core/Src/7SegDisplay.c ****       break;
 625              		.loc 1 129 7 view .LVU97
 626 02a4 0122     		movs	r2, #1
 627 02a6 4FF48071 		mov	r1, #256
 628 02aa 2046     		mov	r0, r4
 629 02ac FFF7FEFF 		bl	HAL_GPIO_WritePin
 630              	.LVL61:
 130:Core/Src/7SegDisplay.c ****     case '4':
 631              		.loc 1 130 7 view .LVU98
 632 02b0 5AE7     		b	.L18
 633              	.L41:
ARM GAS  C:\Temp\ccCqsu9M.s 			page 18


 132:Core/Src/7SegDisplay.c ****       HAL_GPIO_WritePin(GPIOG, SEG_B_Pin, 1);
 634              		.loc 1 132 7 view .LVU99
 635 02b2 144C     		ldr	r4, .L52
 636 02b4 0022     		movs	r2, #0
 637 02b6 1021     		movs	r1, #16
 638 02b8 2046     		mov	r0, r4
 639 02ba FFF7FEFF 		bl	HAL_GPIO_WritePin
 640              	.LVL62:
 133:Core/Src/7SegDisplay.c ****       HAL_GPIO_WritePin(GPIOG, SEG_C_Pin, 1);
 641              		.loc 1 133 7 view .LVU100
 642 02be 0122     		movs	r2, #1
 643 02c0 4021     		movs	r1, #64
 644 02c2 2046     		mov	r0, r4
 645 02c4 FFF7FEFF 		bl	HAL_GPIO_WritePin
 646              	.LVL63:
 134:Core/Src/7SegDisplay.c ****       HAL_GPIO_WritePin(GPIOG, SEG_D_Pin, 0);
 647              		.loc 1 134 7 view .LVU101
 648 02c8 0122     		movs	r2, #1
 649 02ca 4FF40071 		mov	r1, #512
 650 02ce 2046     		mov	r0, r4
 651 02d0 FFF7FEFF 		bl	HAL_GPIO_WritePin
 652              	.LVL64:
 135:Core/Src/7SegDisplay.c ****       HAL_GPIO_WritePin(GPIOG, SEG_E_Pin, 0);
 653              		.loc 1 135 7 view .LVU102
 654 02d4 0022     		movs	r2, #0
 655 02d6 4FF40061 		mov	r1, #2048
 656 02da 2046     		mov	r0, r4
 657 02dc FFF7FEFF 		bl	HAL_GPIO_WritePin
 658              	.LVL65:
 136:Core/Src/7SegDisplay.c ****       HAL_GPIO_WritePin(GPIOG, SEG_F_Pin, 1);
 659              		.loc 1 136 7 view .LVU103
 660 02e0 0022     		movs	r2, #0
 661 02e2 4FF48051 		mov	r1, #4096
 662 02e6 2046     		mov	r0, r4
 663 02e8 FFF7FEFF 		bl	HAL_GPIO_WritePin
 664              	.LVL66:
 137:Core/Src/7SegDisplay.c ****       HAL_GPIO_WritePin(GPIOG, SEG_G_Pin, 1);
 665              		.loc 1 137 7 view .LVU104
 666 02ec 0122     		movs	r2, #1
 667 02ee 2021     		movs	r1, #32
 668 02f0 2046     		mov	r0, r4
 669 02f2 FFF7FEFF 		bl	HAL_GPIO_WritePin
 670              	.LVL67:
 138:Core/Src/7SegDisplay.c ****       break;
 671              		.loc 1 138 7 view .LVU105
 672 02f6 0122     		movs	r2, #1
 673 02f8 4FF48071 		mov	r1, #256
 674 02fc 2046     		mov	r0, r4
 675 02fe FFF7FEFF 		bl	HAL_GPIO_WritePin
 676              	.LVL68:
 139:Core/Src/7SegDisplay.c ****     case '5':
 677              		.loc 1 139 7 view .LVU106
 678 0302 31E7     		b	.L18
 679              	.L53:
 680              		.align	2
 681              	.L52:
 682 0304 00180240 		.word	1073879040
ARM GAS  C:\Temp\ccCqsu9M.s 			page 19


 683              	.L40:
 141:Core/Src/7SegDisplay.c ****       HAL_GPIO_WritePin(GPIOG, SEG_B_Pin, 0);
 684              		.loc 1 141 7 view .LVU107
 685 0308 E14C     		ldr	r4, .L54
 686 030a 0122     		movs	r2, #1
 687 030c 1021     		movs	r1, #16
 688 030e 2046     		mov	r0, r4
 689 0310 FFF7FEFF 		bl	HAL_GPIO_WritePin
 690              	.LVL69:
 142:Core/Src/7SegDisplay.c ****       HAL_GPIO_WritePin(GPIOG, SEG_C_Pin, 1);
 691              		.loc 1 142 7 view .LVU108
 692 0314 0022     		movs	r2, #0
 693 0316 4021     		movs	r1, #64
 694 0318 2046     		mov	r0, r4
 695 031a FFF7FEFF 		bl	HAL_GPIO_WritePin
 696              	.LVL70:
 143:Core/Src/7SegDisplay.c ****       HAL_GPIO_WritePin(GPIOG, SEG_D_Pin, 1);
 697              		.loc 1 143 7 view .LVU109
 698 031e 0122     		movs	r2, #1
 699 0320 4FF40071 		mov	r1, #512
 700 0324 2046     		mov	r0, r4
 701 0326 FFF7FEFF 		bl	HAL_GPIO_WritePin
 702              	.LVL71:
 144:Core/Src/7SegDisplay.c ****       HAL_GPIO_WritePin(GPIOG, SEG_E_Pin, 0);
 703              		.loc 1 144 7 view .LVU110
 704 032a 0122     		movs	r2, #1
 705 032c 4FF40061 		mov	r1, #2048
 706 0330 2046     		mov	r0, r4
 707 0332 FFF7FEFF 		bl	HAL_GPIO_WritePin
 708              	.LVL72:
 145:Core/Src/7SegDisplay.c ****       HAL_GPIO_WritePin(GPIOG, SEG_F_Pin, 1);
 709              		.loc 1 145 7 view .LVU111
 710 0336 0022     		movs	r2, #0
 711 0338 4FF48051 		mov	r1, #4096
 712 033c 2046     		mov	r0, r4
 713 033e FFF7FEFF 		bl	HAL_GPIO_WritePin
 714              	.LVL73:
 146:Core/Src/7SegDisplay.c ****       HAL_GPIO_WritePin(GPIOG, SEG_G_Pin, 1);
 715              		.loc 1 146 7 view .LVU112
 716 0342 0122     		movs	r2, #1
 717 0344 2021     		movs	r1, #32
 718 0346 2046     		mov	r0, r4
 719 0348 FFF7FEFF 		bl	HAL_GPIO_WritePin
 720              	.LVL74:
 147:Core/Src/7SegDisplay.c ****       break;
 721              		.loc 1 147 7 view .LVU113
 722 034c 0122     		movs	r2, #1
 723 034e 4FF48071 		mov	r1, #256
 724 0352 2046     		mov	r0, r4
 725 0354 FFF7FEFF 		bl	HAL_GPIO_WritePin
 726              	.LVL75:
 148:Core/Src/7SegDisplay.c ****     case '6':
 727              		.loc 1 148 7 view .LVU114
 728 0358 06E7     		b	.L18
 729              	.L39:
 150:Core/Src/7SegDisplay.c ****       HAL_GPIO_WritePin(GPIOG, SEG_B_Pin, 0);
 730              		.loc 1 150 7 view .LVU115
ARM GAS  C:\Temp\ccCqsu9M.s 			page 20


 731 035a CD4C     		ldr	r4, .L54
 732 035c 0122     		movs	r2, #1
 733 035e 1021     		movs	r1, #16
 734 0360 2046     		mov	r0, r4
 735 0362 FFF7FEFF 		bl	HAL_GPIO_WritePin
 736              	.LVL76:
 151:Core/Src/7SegDisplay.c ****       HAL_GPIO_WritePin(GPIOG, SEG_C_Pin, 1);
 737              		.loc 1 151 7 view .LVU116
 738 0366 0022     		movs	r2, #0
 739 0368 4021     		movs	r1, #64
 740 036a 2046     		mov	r0, r4
 741 036c FFF7FEFF 		bl	HAL_GPIO_WritePin
 742              	.LVL77:
 152:Core/Src/7SegDisplay.c ****       HAL_GPIO_WritePin(GPIOG, SEG_D_Pin, 1);
 743              		.loc 1 152 7 view .LVU117
 744 0370 0122     		movs	r2, #1
 745 0372 4FF40071 		mov	r1, #512
 746 0376 2046     		mov	r0, r4
 747 0378 FFF7FEFF 		bl	HAL_GPIO_WritePin
 748              	.LVL78:
 153:Core/Src/7SegDisplay.c ****       HAL_GPIO_WritePin(GPIOG, SEG_E_Pin, 1);
 749              		.loc 1 153 7 view .LVU118
 750 037c 0122     		movs	r2, #1
 751 037e 4FF40061 		mov	r1, #2048
 752 0382 2046     		mov	r0, r4
 753 0384 FFF7FEFF 		bl	HAL_GPIO_WritePin
 754              	.LVL79:
 154:Core/Src/7SegDisplay.c ****       HAL_GPIO_WritePin(GPIOG, SEG_F_Pin, 1);
 755              		.loc 1 154 7 view .LVU119
 756 0388 0122     		movs	r2, #1
 757 038a 4FF48051 		mov	r1, #4096
 758 038e 2046     		mov	r0, r4
 759 0390 FFF7FEFF 		bl	HAL_GPIO_WritePin
 760              	.LVL80:
 155:Core/Src/7SegDisplay.c ****       HAL_GPIO_WritePin(GPIOG, SEG_G_Pin, 1);
 761              		.loc 1 155 7 view .LVU120
 762 0394 0122     		movs	r2, #1
 763 0396 2021     		movs	r1, #32
 764 0398 2046     		mov	r0, r4
 765 039a FFF7FEFF 		bl	HAL_GPIO_WritePin
 766              	.LVL81:
 156:Core/Src/7SegDisplay.c ****       break;
 767              		.loc 1 156 7 view .LVU121
 768 039e 0122     		movs	r2, #1
 769 03a0 4FF48071 		mov	r1, #256
 770 03a4 2046     		mov	r0, r4
 771 03a6 FFF7FEFF 		bl	HAL_GPIO_WritePin
 772              	.LVL82:
 157:Core/Src/7SegDisplay.c ****     case '7':
 773              		.loc 1 157 7 view .LVU122
 774 03aa DDE6     		b	.L18
 775              	.L38:
 159:Core/Src/7SegDisplay.c ****       HAL_GPIO_WritePin(GPIOG, SEG_B_Pin, 1);
 776              		.loc 1 159 7 view .LVU123
 777 03ac B84C     		ldr	r4, .L54
 778 03ae 0122     		movs	r2, #1
 779 03b0 1021     		movs	r1, #16
ARM GAS  C:\Temp\ccCqsu9M.s 			page 21


 780 03b2 2046     		mov	r0, r4
 781 03b4 FFF7FEFF 		bl	HAL_GPIO_WritePin
 782              	.LVL83:
 160:Core/Src/7SegDisplay.c ****       HAL_GPIO_WritePin(GPIOG, SEG_C_Pin, 1);
 783              		.loc 1 160 7 view .LVU124
 784 03b8 0122     		movs	r2, #1
 785 03ba 4021     		movs	r1, #64
 786 03bc 2046     		mov	r0, r4
 787 03be FFF7FEFF 		bl	HAL_GPIO_WritePin
 788              	.LVL84:
 161:Core/Src/7SegDisplay.c ****       HAL_GPIO_WritePin(GPIOG, SEG_D_Pin, 0);
 789              		.loc 1 161 7 view .LVU125
 790 03c2 0122     		movs	r2, #1
 791 03c4 4FF40071 		mov	r1, #512
 792 03c8 2046     		mov	r0, r4
 793 03ca FFF7FEFF 		bl	HAL_GPIO_WritePin
 794              	.LVL85:
 162:Core/Src/7SegDisplay.c ****       HAL_GPIO_WritePin(GPIOG, SEG_E_Pin, 0);
 795              		.loc 1 162 7 view .LVU126
 796 03ce 0022     		movs	r2, #0
 797 03d0 4FF40061 		mov	r1, #2048
 798 03d4 2046     		mov	r0, r4
 799 03d6 FFF7FEFF 		bl	HAL_GPIO_WritePin
 800              	.LVL86:
 163:Core/Src/7SegDisplay.c ****       HAL_GPIO_WritePin(GPIOG, SEG_F_Pin, 0);
 801              		.loc 1 163 7 view .LVU127
 802 03da 0022     		movs	r2, #0
 803 03dc 4FF48051 		mov	r1, #4096
 804 03e0 2046     		mov	r0, r4
 805 03e2 FFF7FEFF 		bl	HAL_GPIO_WritePin
 806              	.LVL87:
 164:Core/Src/7SegDisplay.c ****       HAL_GPIO_WritePin(GPIOG, SEG_G_Pin, 0);
 807              		.loc 1 164 7 view .LVU128
 808 03e6 0022     		movs	r2, #0
 809 03e8 2021     		movs	r1, #32
 810 03ea 2046     		mov	r0, r4
 811 03ec FFF7FEFF 		bl	HAL_GPIO_WritePin
 812              	.LVL88:
 165:Core/Src/7SegDisplay.c ****       break;
 813              		.loc 1 165 7 view .LVU129
 814 03f0 0022     		movs	r2, #0
 815 03f2 4FF48071 		mov	r1, #256
 816 03f6 2046     		mov	r0, r4
 817 03f8 FFF7FEFF 		bl	HAL_GPIO_WritePin
 818              	.LVL89:
 166:Core/Src/7SegDisplay.c ****     case '8':
 819              		.loc 1 166 7 view .LVU130
 820 03fc B4E6     		b	.L18
 821              	.L37:
 168:Core/Src/7SegDisplay.c ****       HAL_GPIO_WritePin(GPIOG, SEG_B_Pin, 1);
 822              		.loc 1 168 7 view .LVU131
 823 03fe A44C     		ldr	r4, .L54
 824 0400 0122     		movs	r2, #1
 825 0402 1021     		movs	r1, #16
 826 0404 2046     		mov	r0, r4
 827 0406 FFF7FEFF 		bl	HAL_GPIO_WritePin
 828              	.LVL90:
ARM GAS  C:\Temp\ccCqsu9M.s 			page 22


 169:Core/Src/7SegDisplay.c ****       HAL_GPIO_WritePin(GPIOG, SEG_C_Pin, 1);
 829              		.loc 1 169 7 view .LVU132
 830 040a 0122     		movs	r2, #1
 831 040c 4021     		movs	r1, #64
 832 040e 2046     		mov	r0, r4
 833 0410 FFF7FEFF 		bl	HAL_GPIO_WritePin
 834              	.LVL91:
 170:Core/Src/7SegDisplay.c ****       HAL_GPIO_WritePin(GPIOG, SEG_D_Pin, 1);
 835              		.loc 1 170 7 view .LVU133
 836 0414 0122     		movs	r2, #1
 837 0416 4FF40071 		mov	r1, #512
 838 041a 2046     		mov	r0, r4
 839 041c FFF7FEFF 		bl	HAL_GPIO_WritePin
 840              	.LVL92:
 171:Core/Src/7SegDisplay.c ****       HAL_GPIO_WritePin(GPIOG, SEG_E_Pin, 1);
 841              		.loc 1 171 7 view .LVU134
 842 0420 0122     		movs	r2, #1
 843 0422 4FF40061 		mov	r1, #2048
 844 0426 2046     		mov	r0, r4
 845 0428 FFF7FEFF 		bl	HAL_GPIO_WritePin
 846              	.LVL93:
 172:Core/Src/7SegDisplay.c ****       HAL_GPIO_WritePin(GPIOG, SEG_F_Pin, 1);
 847              		.loc 1 172 7 view .LVU135
 848 042c 0122     		movs	r2, #1
 849 042e 4FF48051 		mov	r1, #4096
 850 0432 2046     		mov	r0, r4
 851 0434 FFF7FEFF 		bl	HAL_GPIO_WritePin
 852              	.LVL94:
 173:Core/Src/7SegDisplay.c ****       HAL_GPIO_WritePin(GPIOG, SEG_G_Pin, 1);
 853              		.loc 1 173 7 view .LVU136
 854 0438 0122     		movs	r2, #1
 855 043a 2021     		movs	r1, #32
 856 043c 2046     		mov	r0, r4
 857 043e FFF7FEFF 		bl	HAL_GPIO_WritePin
 858              	.LVL95:
 174:Core/Src/7SegDisplay.c ****       break;
 859              		.loc 1 174 7 view .LVU137
 860 0442 0122     		movs	r2, #1
 861 0444 4FF48071 		mov	r1, #256
 862 0448 2046     		mov	r0, r4
 863 044a FFF7FEFF 		bl	HAL_GPIO_WritePin
 864              	.LVL96:
 175:Core/Src/7SegDisplay.c ****     case '9':
 865              		.loc 1 175 7 view .LVU138
 866 044e 8BE6     		b	.L18
 867              	.L36:
 177:Core/Src/7SegDisplay.c ****       HAL_GPIO_WritePin(GPIOG, SEG_B_Pin, 1);
 868              		.loc 1 177 7 view .LVU139
 869 0450 8F4C     		ldr	r4, .L54
 870 0452 0122     		movs	r2, #1
 871 0454 1021     		movs	r1, #16
 872 0456 2046     		mov	r0, r4
 873 0458 FFF7FEFF 		bl	HAL_GPIO_WritePin
 874              	.LVL97:
 178:Core/Src/7SegDisplay.c ****       HAL_GPIO_WritePin(GPIOG, SEG_C_Pin, 1);
 875              		.loc 1 178 7 view .LVU140
 876 045c 0122     		movs	r2, #1
ARM GAS  C:\Temp\ccCqsu9M.s 			page 23


 877 045e 4021     		movs	r1, #64
 878 0460 2046     		mov	r0, r4
 879 0462 FFF7FEFF 		bl	HAL_GPIO_WritePin
 880              	.LVL98:
 179:Core/Src/7SegDisplay.c ****       HAL_GPIO_WritePin(GPIOG, SEG_D_Pin, 0);
 881              		.loc 1 179 7 view .LVU141
 882 0466 0122     		movs	r2, #1
 883 0468 4FF40071 		mov	r1, #512
 884 046c 2046     		mov	r0, r4
 885 046e FFF7FEFF 		bl	HAL_GPIO_WritePin
 886              	.LVL99:
 180:Core/Src/7SegDisplay.c ****       HAL_GPIO_WritePin(GPIOG, SEG_E_Pin, 0);
 887              		.loc 1 180 7 view .LVU142
 888 0472 0022     		movs	r2, #0
 889 0474 4FF40061 		mov	r1, #2048
 890 0478 2046     		mov	r0, r4
 891 047a FFF7FEFF 		bl	HAL_GPIO_WritePin
 892              	.LVL100:
 181:Core/Src/7SegDisplay.c ****       HAL_GPIO_WritePin(GPIOG, SEG_F_Pin, 1);
 893              		.loc 1 181 7 view .LVU143
 894 047e 0022     		movs	r2, #0
 895 0480 4FF48051 		mov	r1, #4096
 896 0484 2046     		mov	r0, r4
 897 0486 FFF7FEFF 		bl	HAL_GPIO_WritePin
 898              	.LVL101:
 182:Core/Src/7SegDisplay.c ****       HAL_GPIO_WritePin(GPIOG, SEG_G_Pin, 1);
 899              		.loc 1 182 7 view .LVU144
 900 048a 0122     		movs	r2, #1
 901 048c 2021     		movs	r1, #32
 902 048e 2046     		mov	r0, r4
 903 0490 FFF7FEFF 		bl	HAL_GPIO_WritePin
 904              	.LVL102:
 183:Core/Src/7SegDisplay.c ****       break;
 905              		.loc 1 183 7 view .LVU145
 906 0494 0122     		movs	r2, #1
 907 0496 4FF48071 		mov	r1, #256
 908 049a 2046     		mov	r0, r4
 909 049c FFF7FEFF 		bl	HAL_GPIO_WritePin
 910              	.LVL103:
 184:Core/Src/7SegDisplay.c ****     case 'A':
 911              		.loc 1 184 7 view .LVU146
 912 04a0 62E6     		b	.L18
 913              	.L35:
 186:Core/Src/7SegDisplay.c ****       HAL_GPIO_WritePin(GPIOG, SEG_B_Pin, 1);
 914              		.loc 1 186 7 view .LVU147
 915 04a2 7B4C     		ldr	r4, .L54
 916 04a4 0122     		movs	r2, #1
 917 04a6 1021     		movs	r1, #16
 918 04a8 2046     		mov	r0, r4
 919 04aa FFF7FEFF 		bl	HAL_GPIO_WritePin
 920              	.LVL104:
 187:Core/Src/7SegDisplay.c ****       HAL_GPIO_WritePin(GPIOG, SEG_C_Pin, 1);
 921              		.loc 1 187 7 view .LVU148
 922 04ae 0122     		movs	r2, #1
 923 04b0 4021     		movs	r1, #64
 924 04b2 2046     		mov	r0, r4
 925 04b4 FFF7FEFF 		bl	HAL_GPIO_WritePin
ARM GAS  C:\Temp\ccCqsu9M.s 			page 24


 926              	.LVL105:
 188:Core/Src/7SegDisplay.c ****       HAL_GPIO_WritePin(GPIOG, SEG_D_Pin, 0);
 927              		.loc 1 188 7 view .LVU149
 928 04b8 0122     		movs	r2, #1
 929 04ba 4FF40071 		mov	r1, #512
 930 04be 2046     		mov	r0, r4
 931 04c0 FFF7FEFF 		bl	HAL_GPIO_WritePin
 932              	.LVL106:
 189:Core/Src/7SegDisplay.c ****       HAL_GPIO_WritePin(GPIOG, SEG_E_Pin, 1);
 933              		.loc 1 189 7 view .LVU150
 934 04c4 0022     		movs	r2, #0
 935 04c6 4FF40061 		mov	r1, #2048
 936 04ca 2046     		mov	r0, r4
 937 04cc FFF7FEFF 		bl	HAL_GPIO_WritePin
 938              	.LVL107:
 190:Core/Src/7SegDisplay.c ****       HAL_GPIO_WritePin(GPIOG, SEG_F_Pin, 1);
 939              		.loc 1 190 7 view .LVU151
 940 04d0 0122     		movs	r2, #1
 941 04d2 4FF48051 		mov	r1, #4096
 942 04d6 2046     		mov	r0, r4
 943 04d8 FFF7FEFF 		bl	HAL_GPIO_WritePin
 944              	.LVL108:
 191:Core/Src/7SegDisplay.c ****       HAL_GPIO_WritePin(GPIOG, SEG_G_Pin, 1);
 945              		.loc 1 191 7 view .LVU152
 946 04dc 0122     		movs	r2, #1
 947 04de 2021     		movs	r1, #32
 948 04e0 2046     		mov	r0, r4
 949 04e2 FFF7FEFF 		bl	HAL_GPIO_WritePin
 950              	.LVL109:
 192:Core/Src/7SegDisplay.c ****       break;
 951              		.loc 1 192 7 view .LVU153
 952 04e6 0122     		movs	r2, #1
 953 04e8 4FF48071 		mov	r1, #256
 954 04ec 2046     		mov	r0, r4
 955 04ee FFF7FEFF 		bl	HAL_GPIO_WritePin
 956              	.LVL110:
 193:Core/Src/7SegDisplay.c ****     case 'B':
 957              		.loc 1 193 7 view .LVU154
 958 04f2 39E6     		b	.L18
 959              	.L34:
 195:Core/Src/7SegDisplay.c ****       HAL_GPIO_WritePin(GPIOG, SEG_B_Pin, 0);
 960              		.loc 1 195 7 view .LVU155
 961 04f4 664C     		ldr	r4, .L54
 962 04f6 0022     		movs	r2, #0
 963 04f8 1021     		movs	r1, #16
 964 04fa 2046     		mov	r0, r4
 965 04fc FFF7FEFF 		bl	HAL_GPIO_WritePin
 966              	.LVL111:
 196:Core/Src/7SegDisplay.c ****       HAL_GPIO_WritePin(GPIOG, SEG_C_Pin, 1);
 967              		.loc 1 196 7 view .LVU156
 968 0500 0022     		movs	r2, #0
 969 0502 4021     		movs	r1, #64
 970 0504 2046     		mov	r0, r4
 971 0506 FFF7FEFF 		bl	HAL_GPIO_WritePin
 972              	.LVL112:
 197:Core/Src/7SegDisplay.c ****       HAL_GPIO_WritePin(GPIOG, SEG_D_Pin, 1);
 973              		.loc 1 197 7 view .LVU157
ARM GAS  C:\Temp\ccCqsu9M.s 			page 25


 974 050a 0122     		movs	r2, #1
 975 050c 4FF40071 		mov	r1, #512
 976 0510 2046     		mov	r0, r4
 977 0512 FFF7FEFF 		bl	HAL_GPIO_WritePin
 978              	.LVL113:
 198:Core/Src/7SegDisplay.c ****       HAL_GPIO_WritePin(GPIOG, SEG_E_Pin, 1);
 979              		.loc 1 198 7 view .LVU158
 980 0516 0122     		movs	r2, #1
 981 0518 4FF40061 		mov	r1, #2048
 982 051c 2046     		mov	r0, r4
 983 051e FFF7FEFF 		bl	HAL_GPIO_WritePin
 984              	.LVL114:
 199:Core/Src/7SegDisplay.c ****       HAL_GPIO_WritePin(GPIOG, SEG_F_Pin, 1);
 985              		.loc 1 199 7 view .LVU159
 986 0522 0122     		movs	r2, #1
 987 0524 4FF48051 		mov	r1, #4096
 988 0528 2046     		mov	r0, r4
 989 052a FFF7FEFF 		bl	HAL_GPIO_WritePin
 990              	.LVL115:
 200:Core/Src/7SegDisplay.c ****       HAL_GPIO_WritePin(GPIOG, SEG_G_Pin, 1);
 991              		.loc 1 200 7 view .LVU160
 992 052e 0122     		movs	r2, #1
 993 0530 2021     		movs	r1, #32
 994 0532 2046     		mov	r0, r4
 995 0534 FFF7FEFF 		bl	HAL_GPIO_WritePin
 996              	.LVL116:
 201:Core/Src/7SegDisplay.c ****       break;
 997              		.loc 1 201 7 view .LVU161
 998 0538 0122     		movs	r2, #1
 999 053a 4FF48071 		mov	r1, #256
 1000 053e 2046     		mov	r0, r4
 1001 0540 FFF7FEFF 		bl	HAL_GPIO_WritePin
 1002              	.LVL117:
 202:Core/Src/7SegDisplay.c ****     case 'C':
 1003              		.loc 1 202 7 view .LVU162
 1004 0544 10E6     		b	.L18
 1005              	.L33:
 204:Core/Src/7SegDisplay.c ****       HAL_GPIO_WritePin(GPIOG, SEG_B_Pin, 0);
 1006              		.loc 1 204 7 view .LVU163
 1007 0546 524C     		ldr	r4, .L54
 1008 0548 0122     		movs	r2, #1
 1009 054a 1021     		movs	r1, #16
 1010 054c 2046     		mov	r0, r4
 1011 054e FFF7FEFF 		bl	HAL_GPIO_WritePin
 1012              	.LVL118:
 205:Core/Src/7SegDisplay.c ****       HAL_GPIO_WritePin(GPIOG, SEG_C_Pin, 0);
 1013              		.loc 1 205 7 view .LVU164
 1014 0552 0022     		movs	r2, #0
 1015 0554 4021     		movs	r1, #64
 1016 0556 2046     		mov	r0, r4
 1017 0558 FFF7FEFF 		bl	HAL_GPIO_WritePin
 1018              	.LVL119:
 206:Core/Src/7SegDisplay.c ****       HAL_GPIO_WritePin(GPIOG, SEG_D_Pin, 1);
 1019              		.loc 1 206 7 view .LVU165
 1020 055c 0022     		movs	r2, #0
 1021 055e 4FF40071 		mov	r1, #512
 1022 0562 2046     		mov	r0, r4
ARM GAS  C:\Temp\ccCqsu9M.s 			page 26


 1023 0564 FFF7FEFF 		bl	HAL_GPIO_WritePin
 1024              	.LVL120:
 207:Core/Src/7SegDisplay.c ****       HAL_GPIO_WritePin(GPIOG, SEG_E_Pin, 1);
 1025              		.loc 1 207 7 view .LVU166
 1026 0568 0122     		movs	r2, #1
 1027 056a 4FF40061 		mov	r1, #2048
 1028 056e 2046     		mov	r0, r4
 1029 0570 FFF7FEFF 		bl	HAL_GPIO_WritePin
 1030              	.LVL121:
 208:Core/Src/7SegDisplay.c ****       HAL_GPIO_WritePin(GPIOG, SEG_F_Pin, 0);
 1031              		.loc 1 208 7 view .LVU167
 1032 0574 0122     		movs	r2, #1
 1033 0576 4FF48051 		mov	r1, #4096
 1034 057a 2046     		mov	r0, r4
 1035 057c FFF7FEFF 		bl	HAL_GPIO_WritePin
 1036              	.LVL122:
 209:Core/Src/7SegDisplay.c ****       HAL_GPIO_WritePin(GPIOG, SEG_G_Pin, 1);
 1037              		.loc 1 209 7 view .LVU168
 1038 0580 0022     		movs	r2, #0
 1039 0582 2021     		movs	r1, #32
 1040 0584 2046     		mov	r0, r4
 1041 0586 FFF7FEFF 		bl	HAL_GPIO_WritePin
 1042              	.LVL123:
 210:Core/Src/7SegDisplay.c ****       break;
 1043              		.loc 1 210 7 view .LVU169
 1044 058a 0122     		movs	r2, #1
 1045 058c 4FF48071 		mov	r1, #256
 1046 0590 2046     		mov	r0, r4
 1047 0592 FFF7FEFF 		bl	HAL_GPIO_WritePin
 1048              	.LVL124:
 211:Core/Src/7SegDisplay.c ****     case 'D':
 1049              		.loc 1 211 7 view .LVU170
 1050 0596 E7E5     		b	.L18
 1051              	.L32:
 213:Core/Src/7SegDisplay.c ****       HAL_GPIO_WritePin(GPIOG, SEG_B_Pin, 1);
 1052              		.loc 1 213 7 view .LVU171
 1053 0598 3D4C     		ldr	r4, .L54
 1054 059a 0022     		movs	r2, #0
 1055 059c 1021     		movs	r1, #16
 1056 059e 2046     		mov	r0, r4
 1057 05a0 FFF7FEFF 		bl	HAL_GPIO_WritePin
 1058              	.LVL125:
 214:Core/Src/7SegDisplay.c ****       HAL_GPIO_WritePin(GPIOG, SEG_C_Pin, 1);
 1059              		.loc 1 214 7 view .LVU172
 1060 05a4 0122     		movs	r2, #1
 1061 05a6 4021     		movs	r1, #64
 1062 05a8 2046     		mov	r0, r4
 1063 05aa FFF7FEFF 		bl	HAL_GPIO_WritePin
 1064              	.LVL126:
 215:Core/Src/7SegDisplay.c ****       HAL_GPIO_WritePin(GPIOG, SEG_D_Pin, 1);
 1065              		.loc 1 215 7 view .LVU173
 1066 05ae 0122     		movs	r2, #1
 1067 05b0 4FF40071 		mov	r1, #512
 1068 05b4 2046     		mov	r0, r4
 1069 05b6 FFF7FEFF 		bl	HAL_GPIO_WritePin
 1070              	.LVL127:
 216:Core/Src/7SegDisplay.c ****       HAL_GPIO_WritePin(GPIOG, SEG_E_Pin, 1);
ARM GAS  C:\Temp\ccCqsu9M.s 			page 27


 1071              		.loc 1 216 7 view .LVU174
 1072 05ba 0122     		movs	r2, #1
 1073 05bc 4FF40061 		mov	r1, #2048
 1074 05c0 2046     		mov	r0, r4
 1075 05c2 FFF7FEFF 		bl	HAL_GPIO_WritePin
 1076              	.LVL128:
 217:Core/Src/7SegDisplay.c ****       HAL_GPIO_WritePin(GPIOG, SEG_F_Pin, 0);
 1077              		.loc 1 217 7 view .LVU175
 1078 05c6 0122     		movs	r2, #1
 1079 05c8 4FF48051 		mov	r1, #4096
 1080 05cc 2046     		mov	r0, r4
 1081 05ce FFF7FEFF 		bl	HAL_GPIO_WritePin
 1082              	.LVL129:
 218:Core/Src/7SegDisplay.c ****       HAL_GPIO_WritePin(GPIOG, SEG_G_Pin, 1);
 1083              		.loc 1 218 7 view .LVU176
 1084 05d2 0022     		movs	r2, #0
 1085 05d4 2021     		movs	r1, #32
 1086 05d6 2046     		mov	r0, r4
 1087 05d8 FFF7FEFF 		bl	HAL_GPIO_WritePin
 1088              	.LVL130:
 219:Core/Src/7SegDisplay.c ****       break;
 1089              		.loc 1 219 7 view .LVU177
 1090 05dc 0122     		movs	r2, #1
 1091 05de 4FF48071 		mov	r1, #256
 1092 05e2 2046     		mov	r0, r4
 1093 05e4 FFF7FEFF 		bl	HAL_GPIO_WritePin
 1094              	.LVL131:
 220:Core/Src/7SegDisplay.c ****     case 'E':
 1095              		.loc 1 220 7 view .LVU178
 1096 05e8 BEE5     		b	.L18
 1097              	.L31:
 222:Core/Src/7SegDisplay.c ****       HAL_GPIO_WritePin(GPIOG, SEG_B_Pin, 0);
 1098              		.loc 1 222 7 view .LVU179
 1099 05ea 294C     		ldr	r4, .L54
 1100 05ec 0122     		movs	r2, #1
 1101 05ee 1021     		movs	r1, #16
 1102 05f0 2046     		mov	r0, r4
 1103 05f2 FFF7FEFF 		bl	HAL_GPIO_WritePin
 1104              	.LVL132:
 223:Core/Src/7SegDisplay.c ****       HAL_GPIO_WritePin(GPIOG, SEG_C_Pin, 0);
 1105              		.loc 1 223 7 view .LVU180
 1106 05f6 0022     		movs	r2, #0
 1107 05f8 4021     		movs	r1, #64
 1108 05fa 2046     		mov	r0, r4
 1109 05fc FFF7FEFF 		bl	HAL_GPIO_WritePin
 1110              	.LVL133:
 224:Core/Src/7SegDisplay.c ****       HAL_GPIO_WritePin(GPIOG, SEG_D_Pin, 1);
 1111              		.loc 1 224 7 view .LVU181
 1112 0600 0022     		movs	r2, #0
 1113 0602 4FF40071 		mov	r1, #512
 1114 0606 2046     		mov	r0, r4
 1115 0608 FFF7FEFF 		bl	HAL_GPIO_WritePin
 1116              	.LVL134:
 225:Core/Src/7SegDisplay.c ****       HAL_GPIO_WritePin(GPIOG, SEG_E_Pin, 1);
 1117              		.loc 1 225 7 view .LVU182
 1118 060c 0122     		movs	r2, #1
 1119 060e 4FF40061 		mov	r1, #2048
ARM GAS  C:\Temp\ccCqsu9M.s 			page 28


 1120 0612 2046     		mov	r0, r4
 1121 0614 FFF7FEFF 		bl	HAL_GPIO_WritePin
 1122              	.LVL135:
 226:Core/Src/7SegDisplay.c ****       HAL_GPIO_WritePin(GPIOG, SEG_F_Pin, 1);
 1123              		.loc 1 226 7 view .LVU183
 1124 0618 0122     		movs	r2, #1
 1125 061a 4FF48051 		mov	r1, #4096
 1126 061e 2046     		mov	r0, r4
 1127 0620 FFF7FEFF 		bl	HAL_GPIO_WritePin
 1128              	.LVL136:
 227:Core/Src/7SegDisplay.c ****       HAL_GPIO_WritePin(GPIOG, SEG_G_Pin, 1);
 1129              		.loc 1 227 7 view .LVU184
 1130 0624 0122     		movs	r2, #1
 1131 0626 2021     		movs	r1, #32
 1132 0628 2046     		mov	r0, r4
 1133 062a FFF7FEFF 		bl	HAL_GPIO_WritePin
 1134              	.LVL137:
 228:Core/Src/7SegDisplay.c ****       break;
 1135              		.loc 1 228 7 view .LVU185
 1136 062e 0122     		movs	r2, #1
 1137 0630 4FF48071 		mov	r1, #256
 1138 0634 2046     		mov	r0, r4
 1139 0636 FFF7FEFF 		bl	HAL_GPIO_WritePin
 1140              	.LVL138:
 229:Core/Src/7SegDisplay.c ****     case 'F':
 1141              		.loc 1 229 7 view .LVU186
 1142 063a 95E5     		b	.L18
 1143              	.L30:
 231:Core/Src/7SegDisplay.c ****       HAL_GPIO_WritePin(GPIOG, SEG_B_Pin, 0);
 1144              		.loc 1 231 7 view .LVU187
 1145 063c 144C     		ldr	r4, .L54
 1146 063e 0122     		movs	r2, #1
 1147 0640 1021     		movs	r1, #16
 1148 0642 2046     		mov	r0, r4
 1149 0644 FFF7FEFF 		bl	HAL_GPIO_WritePin
 1150              	.LVL139:
 232:Core/Src/7SegDisplay.c ****       HAL_GPIO_WritePin(GPIOG, SEG_C_Pin, 0);
 1151              		.loc 1 232 7 view .LVU188
 1152 0648 0022     		movs	r2, #0
 1153 064a 4021     		movs	r1, #64
 1154 064c 2046     		mov	r0, r4
 1155 064e FFF7FEFF 		bl	HAL_GPIO_WritePin
 1156              	.LVL140:
 233:Core/Src/7SegDisplay.c ****       HAL_GPIO_WritePin(GPIOG, SEG_D_Pin, 0);
 1157              		.loc 1 233 7 view .LVU189
 1158 0652 0022     		movs	r2, #0
 1159 0654 4FF40071 		mov	r1, #512
 1160 0658 2046     		mov	r0, r4
 1161 065a FFF7FEFF 		bl	HAL_GPIO_WritePin
 1162              	.LVL141:
 234:Core/Src/7SegDisplay.c ****       HAL_GPIO_WritePin(GPIOG, SEG_E_Pin, 1);
 1163              		.loc 1 234 7 view .LVU190
 1164 065e 0022     		movs	r2, #0
 1165 0660 4FF40061 		mov	r1, #2048
 1166 0664 2046     		mov	r0, r4
 1167 0666 FFF7FEFF 		bl	HAL_GPIO_WritePin
 1168              	.LVL142:
ARM GAS  C:\Temp\ccCqsu9M.s 			page 29


 235:Core/Src/7SegDisplay.c ****       HAL_GPIO_WritePin(GPIOG, SEG_F_Pin, 1);
 1169              		.loc 1 235 7 view .LVU191
 1170 066a 0122     		movs	r2, #1
 1171 066c 4FF48051 		mov	r1, #4096
 1172 0670 2046     		mov	r0, r4
 1173 0672 FFF7FEFF 		bl	HAL_GPIO_WritePin
 1174              	.LVL143:
 236:Core/Src/7SegDisplay.c ****       HAL_GPIO_WritePin(GPIOG, SEG_G_Pin, 1);
 1175              		.loc 1 236 7 view .LVU192
 1176 0676 0122     		movs	r2, #1
 1177 0678 2021     		movs	r1, #32
 1178 067a 2046     		mov	r0, r4
 1179 067c FFF7FEFF 		bl	HAL_GPIO_WritePin
 1180              	.LVL144:
 237:Core/Src/7SegDisplay.c ****       break;
 1181              		.loc 1 237 7 view .LVU193
 1182 0680 0122     		movs	r2, #1
 1183 0682 4FF48071 		mov	r1, #256
 1184 0686 2046     		mov	r0, r4
 1185 0688 FFF7FEFF 		bl	HAL_GPIO_WritePin
 1186              	.LVL145:
 238:Core/Src/7SegDisplay.c ****     case 'G':
 1187              		.loc 1 238 7 view .LVU194
 1188 068c 6CE5     		b	.L18
 1189              	.L55:
 1190 068e 00BF     		.align	2
 1191              	.L54:
 1192 0690 00180240 		.word	1073879040
 1193              	.L29:
 240:Core/Src/7SegDisplay.c ****       HAL_GPIO_WritePin(GPIOG, SEG_B_Pin, 0);
 1194              		.loc 1 240 7 view .LVU195
 1195 0694 7A4C     		ldr	r4, .L56
 1196 0696 0122     		movs	r2, #1
 1197 0698 1021     		movs	r1, #16
 1198 069a 2046     		mov	r0, r4
 1199 069c FFF7FEFF 		bl	HAL_GPIO_WritePin
 1200              	.LVL146:
 241:Core/Src/7SegDisplay.c ****       HAL_GPIO_WritePin(GPIOG, SEG_C_Pin, 1);
 1201              		.loc 1 241 7 view .LVU196
 1202 06a0 0022     		movs	r2, #0
 1203 06a2 4021     		movs	r1, #64
 1204 06a4 2046     		mov	r0, r4
 1205 06a6 FFF7FEFF 		bl	HAL_GPIO_WritePin
 1206              	.LVL147:
 242:Core/Src/7SegDisplay.c ****       HAL_GPIO_WritePin(GPIOG, SEG_D_Pin, 1);
 1207              		.loc 1 242 7 view .LVU197
 1208 06aa 0122     		movs	r2, #1
 1209 06ac 4FF40071 		mov	r1, #512
 1210 06b0 2046     		mov	r0, r4
 1211 06b2 FFF7FEFF 		bl	HAL_GPIO_WritePin
 1212              	.LVL148:
 243:Core/Src/7SegDisplay.c ****       HAL_GPIO_WritePin(GPIOG, SEG_E_Pin, 1);
 1213              		.loc 1 243 7 view .LVU198
 1214 06b6 0122     		movs	r2, #1
 1215 06b8 4FF40061 		mov	r1, #2048
 1216 06bc 2046     		mov	r0, r4
 1217 06be FFF7FEFF 		bl	HAL_GPIO_WritePin
ARM GAS  C:\Temp\ccCqsu9M.s 			page 30


 1218              	.LVL149:
 244:Core/Src/7SegDisplay.c ****       HAL_GPIO_WritePin(GPIOG, SEG_F_Pin, 1);
 1219              		.loc 1 244 7 view .LVU199
 1220 06c2 0122     		movs	r2, #1
 1221 06c4 4FF48051 		mov	r1, #4096
 1222 06c8 2046     		mov	r0, r4
 1223 06ca FFF7FEFF 		bl	HAL_GPIO_WritePin
 1224              	.LVL150:
 245:Core/Src/7SegDisplay.c ****       HAL_GPIO_WritePin(GPIOG, SEG_G_Pin, 0);
 1225              		.loc 1 245 7 view .LVU200
 1226 06ce 0122     		movs	r2, #1
 1227 06d0 2021     		movs	r1, #32
 1228 06d2 2046     		mov	r0, r4
 1229 06d4 FFF7FEFF 		bl	HAL_GPIO_WritePin
 1230              	.LVL151:
 246:Core/Src/7SegDisplay.c ****       break;
 1231              		.loc 1 246 7 view .LVU201
 1232 06d8 0022     		movs	r2, #0
 1233 06da 4FF48071 		mov	r1, #256
 1234 06de 2046     		mov	r0, r4
 1235 06e0 FFF7FEFF 		bl	HAL_GPIO_WritePin
 1236              	.LVL152:
 247:Core/Src/7SegDisplay.c ****     case 'H':
 1237              		.loc 1 247 7 view .LVU202
 1238 06e4 40E5     		b	.L18
 1239              	.L28:
 249:Core/Src/7SegDisplay.c ****       HAL_GPIO_WritePin(GPIOG, SEG_B_Pin, 1);
 1240              		.loc 1 249 7 view .LVU203
 1241 06e6 664C     		ldr	r4, .L56
 1242 06e8 0022     		movs	r2, #0
 1243 06ea 1021     		movs	r1, #16
 1244 06ec 2046     		mov	r0, r4
 1245 06ee FFF7FEFF 		bl	HAL_GPIO_WritePin
 1246              	.LVL153:
 250:Core/Src/7SegDisplay.c ****       HAL_GPIO_WritePin(GPIOG, SEG_C_Pin, 1);
 1247              		.loc 1 250 7 view .LVU204
 1248 06f2 0122     		movs	r2, #1
 1249 06f4 4021     		movs	r1, #64
 1250 06f6 2046     		mov	r0, r4
 1251 06f8 FFF7FEFF 		bl	HAL_GPIO_WritePin
 1252              	.LVL154:
 251:Core/Src/7SegDisplay.c ****       HAL_GPIO_WritePin(GPIOG, SEG_D_Pin, 0);
 1253              		.loc 1 251 7 view .LVU205
 1254 06fc 0122     		movs	r2, #1
 1255 06fe 4FF40071 		mov	r1, #512
 1256 0702 2046     		mov	r0, r4
 1257 0704 FFF7FEFF 		bl	HAL_GPIO_WritePin
 1258              	.LVL155:
 252:Core/Src/7SegDisplay.c ****       HAL_GPIO_WritePin(GPIOG, SEG_E_Pin, 1);
 1259              		.loc 1 252 7 view .LVU206
 1260 0708 0022     		movs	r2, #0
 1261 070a 4FF40061 		mov	r1, #2048
 1262 070e 2046     		mov	r0, r4
 1263 0710 FFF7FEFF 		bl	HAL_GPIO_WritePin
 1264              	.LVL156:
 253:Core/Src/7SegDisplay.c ****       HAL_GPIO_WritePin(GPIOG, SEG_F_Pin, 1);
 1265              		.loc 1 253 7 view .LVU207
ARM GAS  C:\Temp\ccCqsu9M.s 			page 31


 1266 0714 0122     		movs	r2, #1
 1267 0716 4FF48051 		mov	r1, #4096
 1268 071a 2046     		mov	r0, r4
 1269 071c FFF7FEFF 		bl	HAL_GPIO_WritePin
 1270              	.LVL157:
 254:Core/Src/7SegDisplay.c ****       HAL_GPIO_WritePin(GPIOG, SEG_G_Pin, 1);
 1271              		.loc 1 254 7 view .LVU208
 1272 0720 0122     		movs	r2, #1
 1273 0722 2021     		movs	r1, #32
 1274 0724 2046     		mov	r0, r4
 1275 0726 FFF7FEFF 		bl	HAL_GPIO_WritePin
 1276              	.LVL158:
 255:Core/Src/7SegDisplay.c ****       break;
 1277              		.loc 1 255 7 view .LVU209
 1278 072a 0122     		movs	r2, #1
 1279 072c 4FF48071 		mov	r1, #256
 1280 0730 2046     		mov	r0, r4
 1281 0732 FFF7FEFF 		bl	HAL_GPIO_WritePin
 1282              	.LVL159:
 256:Core/Src/7SegDisplay.c ****     case 'I':
 1283              		.loc 1 256 7 view .LVU210
 1284 0736 17E5     		b	.L18
 1285              	.L27:
 258:Core/Src/7SegDisplay.c ****       HAL_GPIO_WritePin(GPIOG, SEG_B_Pin, 0);
 1286              		.loc 1 258 7 view .LVU211
 1287 0738 514C     		ldr	r4, .L56
 1288 073a 0022     		movs	r2, #0
 1289 073c 1021     		movs	r1, #16
 1290 073e 2046     		mov	r0, r4
 1291 0740 FFF7FEFF 		bl	HAL_GPIO_WritePin
 1292              	.LVL160:
 259:Core/Src/7SegDisplay.c ****       HAL_GPIO_WritePin(GPIOG, SEG_C_Pin, 0);
 1293              		.loc 1 259 7 view .LVU212
 1294 0744 0022     		movs	r2, #0
 1295 0746 4021     		movs	r1, #64
 1296 0748 2046     		mov	r0, r4
 1297 074a FFF7FEFF 		bl	HAL_GPIO_WritePin
 1298              	.LVL161:
 260:Core/Src/7SegDisplay.c ****       HAL_GPIO_WritePin(GPIOG, SEG_D_Pin, 0);
 1299              		.loc 1 260 7 view .LVU213
 1300 074e 0022     		movs	r2, #0
 1301 0750 4FF40071 		mov	r1, #512
 1302 0754 2046     		mov	r0, r4
 1303 0756 FFF7FEFF 		bl	HAL_GPIO_WritePin
 1304              	.LVL162:
 261:Core/Src/7SegDisplay.c ****       HAL_GPIO_WritePin(GPIOG, SEG_E_Pin, 1);
 1305              		.loc 1 261 7 view .LVU214
 1306 075a 0022     		movs	r2, #0
 1307 075c 4FF40061 		mov	r1, #2048
 1308 0760 2046     		mov	r0, r4
 1309 0762 FFF7FEFF 		bl	HAL_GPIO_WritePin
 1310              	.LVL163:
 262:Core/Src/7SegDisplay.c ****       HAL_GPIO_WritePin(GPIOG, SEG_F_Pin, 1);
 1311              		.loc 1 262 7 view .LVU215
 1312 0766 0122     		movs	r2, #1
 1313 0768 4FF48051 		mov	r1, #4096
 1314 076c 2046     		mov	r0, r4
ARM GAS  C:\Temp\ccCqsu9M.s 			page 32


 1315 076e FFF7FEFF 		bl	HAL_GPIO_WritePin
 1316              	.LVL164:
 263:Core/Src/7SegDisplay.c ****       HAL_GPIO_WritePin(GPIOG, SEG_G_Pin, 0);
 1317              		.loc 1 263 7 view .LVU216
 1318 0772 0122     		movs	r2, #1
 1319 0774 2021     		movs	r1, #32
 1320 0776 2046     		mov	r0, r4
 1321 0778 FFF7FEFF 		bl	HAL_GPIO_WritePin
 1322              	.LVL165:
 264:Core/Src/7SegDisplay.c ****       break;
 1323              		.loc 1 264 7 view .LVU217
 1324 077c 0022     		movs	r2, #0
 1325 077e 4FF48071 		mov	r1, #256
 1326 0782 2046     		mov	r0, r4
 1327 0784 FFF7FEFF 		bl	HAL_GPIO_WritePin
 1328              	.LVL166:
 265:Core/Src/7SegDisplay.c ****     case 'r':
 1329              		.loc 1 265 7 view .LVU218
 1330 0788 EEE4     		b	.L18
 1331              	.L23:
 267:Core/Src/7SegDisplay.c ****       HAL_GPIO_WritePin(GPIOG, SEG_B_Pin, 0);
 1332              		.loc 1 267 7 view .LVU219
 1333 078a 3D4C     		ldr	r4, .L56
 1334 078c 0022     		movs	r2, #0
 1335 078e 1021     		movs	r1, #16
 1336 0790 2046     		mov	r0, r4
 1337 0792 FFF7FEFF 		bl	HAL_GPIO_WritePin
 1338              	.LVL167:
 268:Core/Src/7SegDisplay.c ****       HAL_GPIO_WritePin(GPIOG, SEG_C_Pin, 0);
 1339              		.loc 1 268 7 view .LVU220
 1340 0796 0022     		movs	r2, #0
 1341 0798 4021     		movs	r1, #64
 1342 079a 2046     		mov	r0, r4
 1343 079c FFF7FEFF 		bl	HAL_GPIO_WritePin
 1344              	.LVL168:
 269:Core/Src/7SegDisplay.c ****       HAL_GPIO_WritePin(GPIOG, SEG_D_Pin, 0);
 1345              		.loc 1 269 7 view .LVU221
 1346 07a0 0022     		movs	r2, #0
 1347 07a2 4FF40071 		mov	r1, #512
 1348 07a6 2046     		mov	r0, r4
 1349 07a8 FFF7FEFF 		bl	HAL_GPIO_WritePin
 1350              	.LVL169:
 270:Core/Src/7SegDisplay.c ****       HAL_GPIO_WritePin(GPIOG, SEG_E_Pin, 1);
 1351              		.loc 1 270 7 view .LVU222
 1352 07ac 0022     		movs	r2, #0
 1353 07ae 4FF40061 		mov	r1, #2048
 1354 07b2 2046     		mov	r0, r4
 1355 07b4 FFF7FEFF 		bl	HAL_GPIO_WritePin
 1356              	.LVL170:
 271:Core/Src/7SegDisplay.c ****       HAL_GPIO_WritePin(GPIOG, SEG_F_Pin, 0);
 1357              		.loc 1 271 7 view .LVU223
 1358 07b8 0122     		movs	r2, #1
 1359 07ba 4FF48051 		mov	r1, #4096
 1360 07be 2046     		mov	r0, r4
 1361 07c0 FFF7FEFF 		bl	HAL_GPIO_WritePin
 1362              	.LVL171:
 272:Core/Src/7SegDisplay.c ****       HAL_GPIO_WritePin(GPIOG, SEG_G_Pin, 1);
ARM GAS  C:\Temp\ccCqsu9M.s 			page 33


 1363              		.loc 1 272 7 view .LVU224
 1364 07c4 0022     		movs	r2, #0
 1365 07c6 2021     		movs	r1, #32
 1366 07c8 2046     		mov	r0, r4
 1367 07ca FFF7FEFF 		bl	HAL_GPIO_WritePin
 1368              	.LVL172:
 273:Core/Src/7SegDisplay.c ****       break;
 1369              		.loc 1 273 7 view .LVU225
 1370 07ce 0122     		movs	r2, #1
 1371 07d0 4FF48071 		mov	r1, #256
 1372 07d4 2046     		mov	r0, r4
 1373 07d6 FFF7FEFF 		bl	HAL_GPIO_WritePin
 1374              	.LVL173:
 274:Core/Src/7SegDisplay.c ****     case 'U':
 1375              		.loc 1 274 7 view .LVU226
 1376 07da C5E4     		b	.L18
 1377              	.L25:
 276:Core/Src/7SegDisplay.c ****       HAL_GPIO_WritePin(GPIOG, SEG_B_Pin, 1);
 1378              		.loc 1 276 7 view .LVU227
 1379 07dc 284C     		ldr	r4, .L56
 1380 07de 0022     		movs	r2, #0
 1381 07e0 1021     		movs	r1, #16
 1382 07e2 2046     		mov	r0, r4
 1383 07e4 FFF7FEFF 		bl	HAL_GPIO_WritePin
 1384              	.LVL174:
 277:Core/Src/7SegDisplay.c ****       HAL_GPIO_WritePin(GPIOG, SEG_C_Pin, 1);
 1385              		.loc 1 277 7 view .LVU228
 1386 07e8 0122     		movs	r2, #1
 1387 07ea 4021     		movs	r1, #64
 1388 07ec 2046     		mov	r0, r4
 1389 07ee FFF7FEFF 		bl	HAL_GPIO_WritePin
 1390              	.LVL175:
 278:Core/Src/7SegDisplay.c ****       HAL_GPIO_WritePin(GPIOG, SEG_D_Pin, 1);
 1391              		.loc 1 278 7 view .LVU229
 1392 07f2 0122     		movs	r2, #1
 1393 07f4 4FF40071 		mov	r1, #512
 1394 07f8 2046     		mov	r0, r4
 1395 07fa FFF7FEFF 		bl	HAL_GPIO_WritePin
 1396              	.LVL176:
 279:Core/Src/7SegDisplay.c ****       HAL_GPIO_WritePin(GPIOG, SEG_E_Pin, 1);
 1397              		.loc 1 279 7 view .LVU230
 1398 07fe 0122     		movs	r2, #1
 1399 0800 4FF40061 		mov	r1, #2048
 1400 0804 2046     		mov	r0, r4
 1401 0806 FFF7FEFF 		bl	HAL_GPIO_WritePin
 1402              	.LVL177:
 280:Core/Src/7SegDisplay.c ****       HAL_GPIO_WritePin(GPIOG, SEG_F_Pin, 1);
 1403              		.loc 1 280 7 view .LVU231
 1404 080a 0122     		movs	r2, #1
 1405 080c 4FF48051 		mov	r1, #4096
 1406 0810 2046     		mov	r0, r4
 1407 0812 FFF7FEFF 		bl	HAL_GPIO_WritePin
 1408              	.LVL178:
 281:Core/Src/7SegDisplay.c ****       HAL_GPIO_WritePin(GPIOG, SEG_G_Pin, 0);
 1409              		.loc 1 281 7 view .LVU232
 1410 0816 0122     		movs	r2, #1
 1411 0818 2021     		movs	r1, #32
ARM GAS  C:\Temp\ccCqsu9M.s 			page 34


 1412 081a 2046     		mov	r0, r4
 1413 081c FFF7FEFF 		bl	HAL_GPIO_WritePin
 1414              	.LVL179:
 282:Core/Src/7SegDisplay.c ****       break;
 1415              		.loc 1 282 7 view .LVU233
 1416 0820 0022     		movs	r2, #0
 1417 0822 4FF48071 		mov	r1, #256
 1418 0826 2046     		mov	r0, r4
 1419 0828 FFF7FEFF 		bl	HAL_GPIO_WritePin
 1420              	.LVL180:
 283:Core/Src/7SegDisplay.c ****     case 'S':
 1421              		.loc 1 283 7 view .LVU234
 1422 082c 9CE4     		b	.L18
 1423              	.L26:
 285:Core/Src/7SegDisplay.c ****       HAL_GPIO_WritePin(GPIOG, SEG_B_Pin, 0);
 1424              		.loc 1 285 7 view .LVU235
 1425 082e 144C     		ldr	r4, .L56
 1426 0830 0122     		movs	r2, #1
 1427 0832 1021     		movs	r1, #16
 1428 0834 2046     		mov	r0, r4
 1429 0836 FFF7FEFF 		bl	HAL_GPIO_WritePin
 1430              	.LVL181:
 286:Core/Src/7SegDisplay.c ****       HAL_GPIO_WritePin(GPIOG, SEG_C_Pin, 1);
 1431              		.loc 1 286 7 view .LVU236
 1432 083a 0022     		movs	r2, #0
 1433 083c 4021     		movs	r1, #64
 1434 083e 2046     		mov	r0, r4
 1435 0840 FFF7FEFF 		bl	HAL_GPIO_WritePin
 1436              	.LVL182:
 287:Core/Src/7SegDisplay.c ****       HAL_GPIO_WritePin(GPIOG, SEG_D_Pin, 1);
 1437              		.loc 1 287 7 view .LVU237
 1438 0844 0122     		movs	r2, #1
 1439 0846 4FF40071 		mov	r1, #512
 1440 084a 2046     		mov	r0, r4
 1441 084c FFF7FEFF 		bl	HAL_GPIO_WritePin
 1442              	.LVL183:
 288:Core/Src/7SegDisplay.c ****       HAL_GPIO_WritePin(GPIOG, SEG_E_Pin, 0);
 1443              		.loc 1 288 7 view .LVU238
 1444 0850 0122     		movs	r2, #1
 1445 0852 4FF40061 		mov	r1, #2048
 1446 0856 2046     		mov	r0, r4
 1447 0858 FFF7FEFF 		bl	HAL_GPIO_WritePin
 1448              	.LVL184:
 289:Core/Src/7SegDisplay.c ****       HAL_GPIO_WritePin(GPIOG, SEG_F_Pin, 1);
 1449              		.loc 1 289 7 view .LVU239
 1450 085c 0022     		movs	r2, #0
 1451 085e 4FF48051 		mov	r1, #4096
 1452 0862 2046     		mov	r0, r4
 1453 0864 FFF7FEFF 		bl	HAL_GPIO_WritePin
 1454              	.LVL185:
 290:Core/Src/7SegDisplay.c ****       HAL_GPIO_WritePin(GPIOG, SEG_G_Pin, 1);
 1455              		.loc 1 290 7 view .LVU240
 1456 0868 0122     		movs	r2, #1
 1457 086a 2021     		movs	r1, #32
 1458 086c 2046     		mov	r0, r4
 1459 086e FFF7FEFF 		bl	HAL_GPIO_WritePin
 1460              	.LVL186:
ARM GAS  C:\Temp\ccCqsu9M.s 			page 35


 291:Core/Src/7SegDisplay.c ****       break;
 1461              		.loc 1 291 7 view .LVU241
 1462 0872 0122     		movs	r2, #1
 1463 0874 4FF48071 		mov	r1, #256
 1464 0878 2046     		mov	r0, r4
 1465 087a FFF7FEFF 		bl	HAL_GPIO_WritePin
 1466              	.LVL187:
 292:Core/Src/7SegDisplay.c ****     default:
 1467              		.loc 1 292 7 view .LVU242
 1468              		.loc 1 298 1 is_stmt 0 view .LVU243
 1469 087e 73E4     		b	.L18
 1470              	.L57:
 1471              		.align	2
 1472              	.L56:
 1473 0880 00180240 		.word	1073879040
 1474              		.cfi_endproc
 1475              	.LFE243:
 1477              		.section	.text.refreshDisplay,"ax",%progbits
 1478              		.align	1
 1479              		.global	refreshDisplay
 1480              		.syntax unified
 1481              		.thumb
 1482              		.thumb_func
 1484              	refreshDisplay:
 1485              	.LFB238:
  19:Core/Src/7SegDisplay.c ****     display_char(displayStr[counter],counter-floated);
 1486              		.loc 1 19 27 is_stmt 1 view -0
 1487              		.cfi_startproc
 1488              		@ args = 0, pretend = 0, frame = 0
 1489              		@ frame_needed = 0, uses_anonymous_args = 0
 1490 0000 38B5     		push	{r3, r4, r5, lr}
 1491              		.cfi_def_cfa_offset 16
 1492              		.cfi_offset 3, -16
 1493              		.cfi_offset 4, -12
 1494              		.cfi_offset 5, -8
 1495              		.cfi_offset 14, -4
  20:Core/Src/7SegDisplay.c ****     counter++;
 1496              		.loc 1 20 5 view .LVU245
  20:Core/Src/7SegDisplay.c ****     counter++;
 1497              		.loc 1 20 28 is_stmt 0 view .LVU246
 1498 0002 144C     		ldr	r4, .L64
 1499 0004 2378     		ldrb	r3, [r4]	@ zero_extendqisi2
 1500 0006 144D     		ldr	r5, .L64+4
  20:Core/Src/7SegDisplay.c ****     counter++;
 1501              		.loc 1 20 5 view .LVU247
 1502 0008 144A     		ldr	r2, .L64+8
 1503 000a 1178     		ldrb	r1, [r2]	@ zero_extendqisi2
 1504 000c 591A     		subs	r1, r3, r1
 1505 000e E85C     		ldrb	r0, [r5, r3]	@ zero_extendqisi2
 1506 0010 FFF7FEFF 		bl	display_char
 1507              	.LVL188:
  21:Core/Src/7SegDisplay.c ****     if (displayStr[counter] == '.'){
 1508              		.loc 1 21 5 is_stmt 1 view .LVU248
  21:Core/Src/7SegDisplay.c ****     if (displayStr[counter] == '.'){
 1509              		.loc 1 21 12 is_stmt 0 view .LVU249
 1510 0014 2378     		ldrb	r3, [r4]	@ zero_extendqisi2
 1511 0016 0133     		adds	r3, r3, #1
ARM GAS  C:\Temp\ccCqsu9M.s 			page 36


 1512 0018 DBB2     		uxtb	r3, r3
 1513 001a 2370     		strb	r3, [r4]
  22:Core/Src/7SegDisplay.c ****       HAL_GPIO_WritePin(GPIOG, SEG_DP_Pin,1);
 1514              		.loc 1 22 5 is_stmt 1 view .LVU250
  22:Core/Src/7SegDisplay.c ****       HAL_GPIO_WritePin(GPIOG, SEG_DP_Pin,1);
 1515              		.loc 1 22 19 is_stmt 0 view .LVU251
 1516 001c EB5C     		ldrb	r3, [r5, r3]	@ zero_extendqisi2
  22:Core/Src/7SegDisplay.c ****       HAL_GPIO_WritePin(GPIOG, SEG_DP_Pin,1);
 1517              		.loc 1 22 8 view .LVU252
 1518 001e 2E2B     		cmp	r3, #46
 1519 0020 07D0     		beq	.L62
 1520              	.L59:
  27:Core/Src/7SegDisplay.c ****       counter = 0;
 1521              		.loc 1 27 5 is_stmt 1 view .LVU253
  27:Core/Src/7SegDisplay.c ****       counter = 0;
 1522              		.loc 1 27 17 is_stmt 0 view .LVU254
 1523 0022 0C4B     		ldr	r3, .L64
 1524 0024 1A78     		ldrb	r2, [r3]	@ zero_extendqisi2
  27:Core/Src/7SegDisplay.c ****       counter = 0;
 1525              		.loc 1 27 21 view .LVU255
 1526 0026 0D4B     		ldr	r3, .L64+8
 1527 0028 1B78     		ldrb	r3, [r3]	@ zero_extendqisi2
 1528 002a 0333     		adds	r3, r3, #3
  27:Core/Src/7SegDisplay.c ****       counter = 0;
 1529              		.loc 1 27 8 view .LVU256
 1530 002c 9A42     		cmp	r2, r3
 1531 002e 0AD0     		beq	.L63
 1532              	.L58:
  31:Core/Src/7SegDisplay.c **** 
 1533              		.loc 1 31 1 view .LVU257
 1534 0030 38BD     		pop	{r3, r4, r5, pc}
 1535              	.L62:
  23:Core/Src/7SegDisplay.c ****       floated = 1;
 1536              		.loc 1 23 7 is_stmt 1 view .LVU258
 1537 0032 0122     		movs	r2, #1
 1538 0034 4FF48061 		mov	r1, #1024
 1539 0038 0948     		ldr	r0, .L64+12
 1540 003a FFF7FEFF 		bl	HAL_GPIO_WritePin
 1541              	.LVL189:
  24:Core/Src/7SegDisplay.c ****     }
 1542              		.loc 1 24 7 view .LVU259
  24:Core/Src/7SegDisplay.c ****     }
 1543              		.loc 1 24 15 is_stmt 0 view .LVU260
 1544 003e 074B     		ldr	r3, .L64+8
 1545 0040 0122     		movs	r2, #1
 1546 0042 1A70     		strb	r2, [r3]
 1547 0044 EDE7     		b	.L59
 1548              	.L63:
  28:Core/Src/7SegDisplay.c ****       floated = 0;
 1549              		.loc 1 28 7 is_stmt 1 view .LVU261
  28:Core/Src/7SegDisplay.c ****       floated = 0;
 1550              		.loc 1 28 15 is_stmt 0 view .LVU262
 1551 0046 0023     		movs	r3, #0
 1552 0048 024A     		ldr	r2, .L64
 1553 004a 1370     		strb	r3, [r2]
  29:Core/Src/7SegDisplay.c ****     }
 1554              		.loc 1 29 7 is_stmt 1 view .LVU263
ARM GAS  C:\Temp\ccCqsu9M.s 			page 37


  29:Core/Src/7SegDisplay.c ****     }
 1555              		.loc 1 29 15 is_stmt 0 view .LVU264
 1556 004c 034A     		ldr	r2, .L64+8
 1557 004e 1370     		strb	r3, [r2]
  31:Core/Src/7SegDisplay.c **** 
 1558              		.loc 1 31 1 view .LVU265
 1559 0050 EEE7     		b	.L58
 1560              	.L65:
 1561 0052 00BF     		.align	2
 1562              	.L64:
 1563 0054 00000000 		.word	counter
 1564 0058 00000000 		.word	displayStr
 1565 005c 00000000 		.word	floated
 1566 0060 00180240 		.word	1073879040
 1567              		.cfi_endproc
 1568              	.LFE238:
 1570              		.global	floated
 1571              		.section	.bss.floated,"aw",%nobits
 1574              	floated:
 1575 0000 00       		.space	1
 1576              		.global	displayStr
 1577              		.section	.bss.displayStr,"aw",%nobits
 1578              		.align	2
 1581              	displayStr:
 1582 0000 00000000 		.space	16
 1582      00000000 
 1582      00000000 
 1582      00000000 
 1583              		.global	counter
 1584              		.section	.bss.counter,"aw",%nobits
 1587              	counter:
 1588 0000 00       		.space	1
 1589              		.text
 1590              	.Letext0:
 1591              		.file 2 "c:\\users\\jessejabezarendse\\appdata\\roaming\\code\\user\\globalstorage\\bmd.stm32-for-
 1592              		.file 3 "c:\\users\\jessejabezarendse\\appdata\\roaming\\code\\user\\globalstorage\\bmd.stm32-for-
 1593              		.file 4 "Drivers/CMSIS/Device/ST/STM32F4xx/Include/stm32f407xx.h"
 1594              		.file 5 "Drivers/STM32F4xx_HAL_Driver/Inc/stm32f4xx_hal_def.h"
 1595              		.file 6 "Drivers/STM32F4xx_HAL_Driver/Inc/stm32f4xx_hal_gpio.h"
 1596              		.file 7 "Drivers/STM32F4xx_HAL_Driver/Inc/stm32f4xx_hal_dma.h"
 1597              		.file 8 "Drivers/STM32F4xx_HAL_Driver/Inc/stm32f4xx_hal_tim.h"
 1598              		.file 9 "c:\\users\\jessejabezarendse\\appdata\\roaming\\code\\user\\globalstorage\\bmd.stm32-for-
ARM GAS  C:\Temp\ccCqsu9M.s 			page 38

